// SPDX-License-Identifier: GPL-2.0
/*
 * Copyright (c) 2020 Rockchip Electronics Co. Ltd.
 *
 * Author: Zorro Liu <zorro.liu@rock-chips.com>
 */

	.arch armv8-a
	.file	"pvi_waveform.c"
	.text
.Ltext0:
	.cfi_sections	.debug_frame
	.align	2
	.p2align 3,,7
	.type	pvi_lut_init_wf_table, %function
pvi_lut_init_wf_table:
.LFB1558:
	.file 1 "drivers/gpu/drm/rockchip/ebc-dev/epdlut/pvi_waveform.c"
	.loc 1 679 0
	.cfi_startproc
.LVL0:
	.loc 1 683 0
	cmp	w1, 0
	ble	.L14
	adrp	x2, .LANCHOR0
	mov	w13, 0
.LVL1:
	ldr	x6, [x2, #:lo12:.LANCHOR0]
.LVL2:
.L6:
	lsl	w12, w13, 10
	lsl	w10, w13, 16
	mov	w11, 0
	.p2align 2
.L4:
	ubfiz	w9, w11, 5, 4
	and	w8, w11, 240
	add	w9, w9, w12
	add	w8, w12, w8, lsl 1
	.loc 1 679 0
	mov	x4, 0
	.p2align 2
.L3:
	and	w2, w4, 65535
.LVL3:
.LBB4:
	.loc 1 692 0 discriminator 3
	add	w7, w10, w4
	.loc 1 691 0 discriminator 3
	add	w3, w8, w2, lsr 4
	.loc 1 690 0 discriminator 3
	and	w2, w2, 15
.LVL4:
	add	w2, w2, w9
	add	x4, x4, 1
.LBE4:
	.loc 1 685 0 discriminator 3
	cmp	x4, 256
.LBB5:
	.loc 1 691 0 discriminator 3
	ldrb	w3, [x6, w3, sxtw]
	.loc 1 690 0 discriminator 3
	ldrb	w5, [x6, w2, sxtw]
	.loc 1 692 0 discriminator 3
	ubfiz	w2, w3, 2, 2
	.loc 1 690 0 discriminator 3
	and	w3, w5, 3
	.loc 1 692 0 discriminator 3
	orr	w2, w2, w3
	strb	w2, [x0, w7, sxtw]
.LBE5:
	.loc 1 685 0 discriminator 3
	bne	.L3
	.loc 1 684 0 discriminator 2
	add	w11, w11, 1
.LVL5:
	add	w10, w10, 256
	and	w11, w11, 65535
.LVL6:
	cmp	w11, 256
	bne	.L4
	.loc 1 683 0 discriminator 2
	add	w13, w13, 1
	cmp	w1, w13
	bne	.L6
	ret
.LVL7:
.L14:
	ret
	.cfi_endproc
.LFE1558:
	.size	pvi_lut_init_wf_table, .-pvi_lut_init_wf_table
	.align	2
	.p2align 3,,7
	.type	get_wf_mode_index, %function
get_wf_mode_index:
.LFB1552:
	.loc 1 473 0
	.cfi_startproc
.LVL8:
	stp	x29, x30, [sp, -32]!
	.cfi_def_cfa_offset 32
	.cfi_offset 29, -32
	.cfi_offset 30, -24
	add	x29, sp, 0
	.cfi_def_cfa_register 29
	stp	x19, x20, [sp, 16]
	.cfi_offset 19, -16
	.cfi_offset 20, -8
	.loc 1 474 0
	adrp	x19, .LANCHOR0
	add	x1, x19, :lo12:.LANCHOR0
	.loc 1 473 0
	mov	w20, w0
	.loc 1 474 0
	ldr	x3, [x1, 48]
.LVL9:
.LBB8:
.LBB9:
	.loc 1 374 0
	ldrb	w0, [x3, 16]
.LVL10:
	cmp	w0, 25
	beq	.L17
	bhi	.L18
	cmp	w0, 18
	beq	.L19
	bls	.L60
	cmp	w0, 22
	bne	.L61
	.loc 1 388 0
	mov	w3, 1
.LVL11:
	.loc 1 392 0
	mov	w2, 4
	.loc 1 390 0
	mov	w7, 2
	.loc 1 391 0
	mov	w6, 3
	.loc 1 394 0
	mov	w5, 5
	.loc 1 395 0
	mov	w4, 6
	.loc 1 388 0
	stp	wzr, w3, [x1, 8]
.LBE9:
.LBE8:
	.loc 1 480 0
	cmp	w20, 5
.LBB14:
.LBB10:
	.loc 1 390 0
	stp	w3, w7, [x1, 16]
	.loc 1 392 0
	stp	w6, w2, [x1, 24]
	.loc 1 395 0
	stp	w2, w4, [x1, 32]
	.loc 1 394 0
	str	w5, [x1, 40]
.LBE10:
.LBE14:
	.loc 1 480 0
	bne	.L62
	.p2align 2
.L42:
	add	x19, x19, :lo12:.LANCHOR0
	add	x19, x19, 20
.L28:
	.loc 1 519 0
	ldr	w0, [x19]
	.loc 1 520 0
	ldp	x19, x20, [sp, 16]
.LVL12:
	ldp	x29, x30, [sp], 32
	.cfi_remember_state
	.cfi_restore 30
	.cfi_restore 29
	.cfi_restore 19
	.cfi_restore 20
	.cfi_def_cfa 31, 0
	ret
.LVL13:
	.p2align 3
.L18:
	.cfi_restore_state
.LBB15:
.LBB11:
	.loc 1 374 0
	cmp	w0, 35
	beq	.L24
	bls	.L63
	cmp	w0, 67
	beq	.L17
	cmp	w0, 84
	bne	.L16
	.loc 1 415 0
	mov	w2, 4
	.loc 1 411 0
	mov	w3, 1
.LVL14:
	.loc 1 413 0
	mov	w6, 2
	.loc 1 414 0
	mov	w5, 3
	.loc 1 417 0
	mov	w4, 5
	.loc 1 411 0
	stp	wzr, w3, [x1, 8]
	.loc 1 413 0
	stp	w3, w6, [x1, 16]
	.loc 1 415 0
	stp	w5, w2, [x1, 24]
	.loc 1 417 0
	stp	w2, w4, [x1, 32]
	.loc 1 418 0
	str	w2, [x1, 40]
	.p2align 2
.L27:
.LBE11:
.LBE15:
	.loc 1 480 0
	cmp	w20, 5
	beq	.L42
.L62:
	.loc 1 483 0
	cmp	w20, 2
	beq	.L42
	.loc 1 486 0
	cmp	w20, 7
	beq	.L42
	.loc 1 501 0
	add	x19, x19, :lo12:.LANCHOR0
	.loc 1 486 0
	bhi	.L31
	cmp	w20, 3
	beq	.L32
	bls	.L64
	cmp	w20, 4
	beq	.L35
	cmp	w20, 6
	add	x19, x19, 36
	beq	.L28
.L29:
	.loc 1 515 0
	adrp	x0, .LC1
	add	x0, x0, :lo12:.LC1
	bl	printk
.LVL15:
	.loc 1 516 0
	mov	w0, -1
	.loc 1 520 0
	ldp	x19, x20, [sp, 16]
.LVL16:
	ldp	x29, x30, [sp], 32
	.cfi_remember_state
	.cfi_restore 20
	.cfi_restore 19
	.cfi_restore 29
	.cfi_restore 30
	.cfi_def_cfa 31, 0
	ret
.LVL17:
	.p2align 3
.L19:
	.cfi_restore_state
.LBB16:
.LBB12:
	.loc 1 436 0
	mov	w3, 3
.LVL18:
	.loc 1 438 0
	mov	w2, 5
	.loc 1 434 0
	mov	w7, 1
	.loc 1 435 0
	mov	w6, 7
	.loc 1 439 0
	mov	w5, 6
	.loc 1 440 0
	mov	w4, 4
	.loc 1 434 0
	stp	wzr, w7, [x1, 8]
	.loc 1 436 0
	stp	w6, w3, [x1, 16]
	.loc 1 438 0
	stp	w3, w2, [x1, 24]
	.loc 1 440 0
	stp	w5, w4, [x1, 32]
	.loc 1 441 0
	str	w2, [x1, 40]
	b	.L27
.LVL19:
	.p2align 3
.L61:
	.loc 1 374 0
	cmp	w0, 24
	bne	.L16
.L23:
	.loc 1 399 0
	add	x1, x19, :lo12:.LANCHOR0
	.loc 1 400 0
	mov	w3, 1
.LVL20:
	.loc 1 404 0
	mov	w2, 4
	.loc 1 402 0
	mov	w7, 2
	.loc 1 403 0
	mov	w6, 3
	.loc 1 405 0
	mov	w5, 5
	.loc 1 406 0
	mov	w4, 6
	.loc 1 400 0
	stp	wzr, w3, [x1, 8]
	.loc 1 402 0
	stp	w3, w7, [x1, 16]
	.loc 1 404 0
	stp	w6, w2, [x1, 24]
	.loc 1 406 0
	stp	w5, w4, [x1, 32]
	.loc 1 407 0
	str	w2, [x1, 40]
	b	.L27
.LVL21:
	.p2align 3
.L17:
	.loc 1 422 0
	add	x1, x19, :lo12:.LANCHOR0
	.loc 1 427 0
	mov	w2, 4
	.loc 1 422 0
	add	x0, x1, 8
	.loc 1 423 0
	mov	w7, 1
	.loc 1 424 0
	mov	w6, 7
	.loc 1 425 0
	mov	w5, 2
	.loc 1 426 0
	mov	w4, 3
	.loc 1 428 0
	mov	w3, 5
.LVL22:
	.loc 1 423 0
	stp	wzr, w7, [x1, 8]
	.loc 1 429 0
	mov	w1, 6
	.loc 1 425 0
	stp	w6, w5, [x0, 8]
	.loc 1 427 0
	stp	w4, w2, [x0, 16]
	.loc 1 428 0
	str	w3, [x0, 24]
	.loc 1 430 0
	str	w2, [x0, 32]
	.loc 1 429 0
	str	w1, [x0, 28]
	b	.L27
	.p2align 3
.L31:
.LBE12:
.LBE16:
	.loc 1 486 0
	cmp	w20, 9
	beq	.L37
	bcc	.L43
	cmp	w20, 10
	beq	.L38
	cmp	w20, 11
	.loc 1 507 0
	add	x19, x19, 40
	.loc 1 486 0
	beq	.L28
	b	.L29
.LVL23:
	.p2align 3
.L60:
.LBB17:
.LBB13:
	.loc 1 374 0
	cmp	w0, 9
	bne	.L16
	.loc 1 380 0
	mov	w2, 3
	.loc 1 377 0
	mov	w3, 1
.LVL24:
	.loc 1 379 0
	mov	w5, 2
	.loc 1 384 0
	mov	w4, 4
	.loc 1 377 0
	stp	wzr, w3, [x1, 8]
	.loc 1 379 0
	stp	w3, w5, [x1, 16]
	.loc 1 381 0
	stp	w2, w2, [x1, 24]
	.loc 1 384 0
	stp	w2, w4, [x1, 32]
	.loc 1 383 0
	str	w2, [x1, 40]
	b	.L27
.LVL25:
	.p2align 3
.L63:
	.loc 1 374 0
	cmp	w0, 32
	beq	.L23
.L16:
	.loc 1 455 0
	add	x1, x19, :lo12:.LANCHOR0
	.loc 1 460 0
	mov	w2, 4
	.loc 1 455 0
	add	x0, x1, 8
	.loc 1 456 0
	mov	w4, 1
	.loc 1 458 0
	mov	w6, 2
	.loc 1 459 0
	mov	w5, 3
	.loc 1 456 0
	stp	wzr, w4, [x1, 8]
	.loc 1 460 0
	stp	w5, w2, [x1, 24]
	.loc 1 458 0
	stp	w4, w6, [x1, 16]
	.loc 1 463 0
	str	w2, [x1, 40]
	.loc 1 461 0
	mov	w2, 5
	.loc 1 462 0
	mov	w1, 6
	stp	w2, w1, [x0, 24]
	.loc 1 464 0
	adrp	x0, .LC0
	add	x0, x0, :lo12:.LC0
	ldrb	w2, [x3, 22]
	ldrb	w1, [x3, 16]
	bl	printk
.LVL26:
	b	.L27
.LVL27:
	.p2align 3
.L24:
	.loc 1 448 0
	mov	w2, 3
	.loc 1 445 0
	mov	w6, 1
	.loc 1 446 0
	mov	w5, 5
	.loc 1 447 0
	mov	w4, 2
	.loc 1 451 0
	mov	w3, 4
.LVL28:
	.loc 1 445 0
	stp	wzr, w6, [x1, 8]
	.loc 1 447 0
	stp	w5, w4, [x1, 16]
	.loc 1 449 0
	stp	w2, w2, [x1, 24]
	.loc 1 451 0
	stp	w2, w3, [x1, 32]
	.loc 1 452 0
	str	w2, [x1, 40]
	b	.L27
	.p2align 3
.L38:
.LBE13:
.LBE17:
	.loc 1 504 0
	add	x19, x19, 32
	b	.L28
	.p2align 3
.L37:
	.loc 1 501 0
	add	x19, x19, 28
	b	.L28
	.p2align 3
.L32:
	.loc 1 510 0
	add	x19, x19, 16
	b	.L28
	.p2align 3
.L35:
	.loc 1 513 0
	add	x19, x19, 12
	b	.L28
	.p2align 3
.L64:
	.loc 1 486 0
	cmp	w20, 1
	add	x19, x19, 8
	beq	.L28
	b	.L29
	.p2align 3
.L43:
	add	x19, x19, 24
	b	.L28
	.cfi_endproc
.LFE1552:
	.size	get_wf_mode_index, .-get_wf_mode_index
	.align	2
	.p2align 3,,7
	.global	decodewaveform
	.type	decodewaveform, %function
decodewaveform:
.LFB1548:
	.loc 1 67 0
	.cfi_startproc
.LVL29:
	stp	x29, x30, [sp, -48]!
	.cfi_def_cfa_offset 48
	.cfi_offset 29, -48
	.cfi_offset 30, -40
	add	x29, sp, 0
	.cfi_def_cfa_register 29
	str	x21, [sp, 32]
	.cfi_offset 21, -16
	.loc 1 75 0
	adrp	x21, .LANCHOR0
	.loc 1 67 0
	stp	x19, x20, [sp, 16]
	.cfi_offset 19, -32
	.cfi_offset 20, -24
	.loc 1 75 0
	ldr	x4, [x21, #:lo12:.LANCHOR0]
	cbz	x4, .L101
	.loc 1 137 0
	adrp	x20, .LANCHOR1
	mov	w6, 1
.LVL30:
	mov	w15, 0
	mov	w19, 0
.LVL31:
	ldr	w14, [x20, #:lo12:.LANCHOR1]
	mov	w5, 0
	mov	w2, 0
	.p2align 2
.L68:
	.loc 1 86 0
	ldrb	w1, [x0, w15, uxtw]
	cmp	w1, 255
	beq	.L71
	.loc 1 91 0
	cmp	w1, 252
	beq	.L102
.L72:
	.loc 1 98 0
	lsl	w3, w19, 10
	.loc 1 96 0
	cbz	w6, .L73
	.loc 1 98 0
	add	w9, w3, w2, lsl 5
	add	w8, w2, 1
	add	w3, w3, w5
	add	w9, w9, w5
	.loc 1 99 0
	add	w7, w2, 2
	add	w8, w3, w8, lsl 5
	.loc 1 100 0
	add	w6, w2, 3
.LVL32:
	add	w7, w3, w7, lsl 5
	.loc 1 98 0
	and	w10, w1, 3
	.loc 1 101 0
	add	w3, w3, w6, lsl 5
	.loc 1 98 0
	strb	w10, [x4, w9, uxtw]
	.loc 1 99 0
	ubfx	x11, x1, 2, 2
	strb	w11, [x4, w8, uxtw]
	.loc 1 100 0
	ubfx	x12, x1, 4, 2
	strb	w12, [x4, w7, uxtw]
	.loc 1 101 0
	lsr	w13, w1, 6
	strb	w13, [x4, w3, uxtw]
	add	w2, w2, 4
	.loc 1 102 0
	add	w1, w15, 1
	.loc 1 104 0
	cmp	w14, w2
	bhi	.L74
	.loc 1 106 0
	add	w5, w5, 1
	.loc 1 105 0
	mov	w2, 0
	.loc 1 106 0
	cmp	w14, w5
	bhi	.L74
	.loc 1 108 0
	add	w19, w19, 1
	.loc 1 107 0
	mov	w5, 0
.L74:
	.loc 1 112 0
	ldrb	w3, [x0, w1, uxtw]
	.loc 1 113 0
	cbz	w3, .L75
	.p2align 2
.L77:
	.loc 1 114 0
	lsl	w1, w19, 10
	add	w8, w2, 1
	add	w9, w1, w2, lsl 5
	add	w1, w1, w5
	add	w9, w9, w5
	.loc 1 115 0
	add	w7, w2, 2
	add	w8, w1, w8, lsl 5
	.loc 1 116 0
	add	w6, w2, 3
	add	w7, w1, w7, lsl 5
	.loc 1 117 0
	add	w1, w1, w6, lsl 5
	.loc 1 114 0
	strb	w10, [x4, w9, uxtw]
	.loc 1 117 0
	add	w2, w2, 4
	.loc 1 115 0
	strb	w11, [x4, w8, uxtw]
	.loc 1 113 0
	sub	w3, w3, #1
	.loc 1 116 0
	strb	w12, [x4, w7, uxtw]
	.loc 1 118 0
	cmp	w14, w2
	.loc 1 117 0
	strb	w13, [x4, w1, uxtw]
	.loc 1 118 0
	bhi	.L76
	.loc 1 120 0
	add	w5, w5, 1
	.loc 1 119 0
	mov	w2, 0
	.loc 1 120 0
	cmp	w14, w5
	bhi	.L76
	.loc 1 122 0
	add	w19, w19, 1
	.loc 1 121 0
	mov	w5, 0
.L76:
	.loc 1 113 0
	ands	w3, w3, 255
	bne	.L77
.L75:
	.loc 1 127 0
	add	w15, w15, 2
	mov	w6, 1
.LVL33:
.L78:
	.loc 1 81 0
	cmp	w19, 149
	bls	.L68
	.loc 1 82 0
	adrp	x0, .LC3
.LVL34:
	add	x0, x0, :lo12:.LC3
	bl	printk
.LVL35:
	.loc 1 147 0
	ldr	w0, [x20, #:lo12:.LANCHOR1]
	cmp	w0, 32
	beq	.L69
.LVL36:
.L70:
	.loc 1 159 0
	mov	w0, w19
.L65:
	.loc 1 160 0
	ldp	x19, x20, [sp, 16]
.LVL37:
	ldr	x21, [sp, 32]
	ldp	x29, x30, [sp], 48
	.cfi_remember_state
	.cfi_restore 30
	.cfi_restore 29
	.cfi_restore 21
	.cfi_restore 19
	.cfi_restore 20
	.cfi_def_cfa 31, 0
	ret
.LVL38:
	.p2align 3
.L73:
	.cfi_restore_state
	.loc 1 131 0
	add	w10, w3, w2, lsl 5
	add	w9, w2, 1
	add	w3, w3, w5
	add	w10, w10, w5
	.loc 1 132 0
	add	w8, w2, 2
	add	w9, w3, w9, lsl 5
	.loc 1 133 0
	add	w7, w2, 3
	add	w8, w3, w8, lsl 5
	.loc 1 131 0
	and	w11, w1, 3
	.loc 1 134 0
	add	w3, w3, w7, lsl 5
	.loc 1 131 0
	strb	w11, [x4, w10, uxtw]
	.loc 1 132 0
	ubfx	x7, x1, 2, 2
	strb	w7, [x4, w9, uxtw]
	.loc 1 133 0
	ubfx	x7, x1, 4, 2
	strb	w7, [x4, w8, uxtw]
	.loc 1 134 0
	lsr	w1, w1, 6
	strb	w1, [x4, w3, uxtw]
	add	w2, w2, 4
	.loc 1 135 0
	add	w15, w15, 1
	.loc 1 137 0
	cmp	w2, w14
	bcc	.L78
	.loc 1 139 0
	add	w5, w5, 1
	.loc 1 138 0
	mov	w2, 0
	.loc 1 139 0
	cmp	w14, w5
	bhi	.L78
	.loc 1 141 0
	add	w19, w19, 1
	.loc 1 140 0
	mov	w5, 0
	.loc 1 138 0
	mov	w2, w6
	b	.L78
.L102:
	.loc 1 93 0
	add	w15, w15, 1
	.loc 1 92 0
	eor	w6, w6, 1
	ldrb	w1, [x0, w15, uxtw]
	b	.L72
.L71:
	.loc 1 147 0
	ldr	w0, [x20, #:lo12:.LANCHOR1]
.LVL39:
	cmp	w0, 32
	bne	.L70
	.loc 1 149 0 discriminator 1
	cbz	w19, .L70
.L69:
	ldr	x1, [x21, #:lo12:.LANCHOR0]
	.loc 1 119 0
	mov	w8, 0
.LVL40:
.L83:
	lsl	w7, w8, 10
	mov	w6, 0
.LVL41:
	mov	w5, w7
	.p2align 2
.L81:
	lsr	w4, w6, 1
	mov	w0, 0
	add	w4, w7, w4, lsl 5
	.p2align 2
.L80:
	.loc 1 152 0 discriminator 3
	add	w3, w0, w5
.LVL42:
	.loc 1 153 0 discriminator 3
	add	w2, w4, w0, lsr 1
	.loc 1 151 0 discriminator 3
	add	w0, w0, 2
	cmp	w0, 32
	.loc 1 152 0 discriminator 3
	ldrb	w3, [x1, w3, uxtw]
.LVL43:
	.loc 1 153 0 discriminator 3
	strb	w3, [x1, w2, uxtw]
	.loc 1 151 0 discriminator 3
	bne	.L80
	.loc 1 150 0 discriminator 2
	add	w6, w6, 2
	add	w5, w5, 64
	cmp	w6, 32
	bne	.L81
	.loc 1 149 0 discriminator 2
	add	w8, w8, 1
	and	w8, w8, 255
	cmp	w8, w19
	bcc	.L83
	b	.L70
.LVL44:
.L101:
	.loc 1 76 0
	adrp	x0, .LC2
.LVL45:
	add	x0, x0, :lo12:.LC2
	bl	printk
.LVL46:
	.loc 1 77 0
	mov	w0, -22
	b	.L65
	.cfi_endproc
.LFE1548:
	.size	decodewaveform, .-decodewaveform
	.align	2
	.p2align 3,,7
	.global	decodewaveform_32
	.type	decodewaveform_32, %function
decodewaveform_32:
.LFB1549:
	.loc 1 163 0
	.cfi_startproc
.LVL47:
	stp	x29, x30, [sp, -32]!
	.cfi_def_cfa_offset 32
	.cfi_offset 29, -32
	.cfi_offset 30, -24
	.loc 1 171 0
	adrp	x1, .LANCHOR0
	.loc 1 163 0
	add	x29, sp, 0
	.cfi_def_cfa_register 29
	.loc 1 171 0
	ldr	x4, [x1, #:lo12:.LANCHOR0]
	.loc 1 163 0
	str	x19, [sp, 16]
	.cfi_offset 19, -16
	.loc 1 171 0
	cbz	x4, .L127
	.loc 1 233 0
	adrp	x1, .LANCHOR1
	mov	w6, 1
.LVL48:
	mov	w15, 0
	mov	w19, 0
.LVL49:
	ldr	w14, [x1, #:lo12:.LANCHOR1]
	mov	w5, 0
.LVL50:
	mov	w1, 0
.LVL51:
	.p2align 2
.L106:
	.loc 1 182 0
	ldrb	w2, [x0, w15, uxtw]
	cmp	w2, 255
	beq	.L107
	.loc 1 187 0
	cmp	w2, 252
	beq	.L128
.L108:
	.loc 1 194 0
	lsl	w3, w19, 10
.LVL52:
	.loc 1 192 0
	cbz	w6, .L109
	.loc 1 194 0
	add	w9, w3, w1, lsl 5
	add	w8, w1, 1
	add	w3, w3, w5
	add	w9, w9, w5
	.loc 1 195 0
	add	w7, w1, 2
	add	w8, w3, w8, lsl 5
	.loc 1 196 0
	add	w6, w1, 3
.LVL53:
	add	w7, w3, w7, lsl 5
	.loc 1 194 0
	and	w10, w2, 3
	.loc 1 197 0
	add	w3, w3, w6, lsl 5
	.loc 1 194 0
	strb	w10, [x4, w9, uxtw]
	.loc 1 195 0
	ubfx	x11, x2, 2, 2
	strb	w11, [x4, w8, uxtw]
	.loc 1 196 0
	ubfx	x12, x2, 4, 2
	strb	w12, [x4, w7, uxtw]
	.loc 1 197 0
	lsr	w13, w2, 6
	strb	w13, [x4, w3, uxtw]
	add	w1, w1, 4
	.loc 1 198 0
	add	w2, w15, 1
	.loc 1 200 0
	cmp	w14, w1
	bhi	.L110
	.loc 1 202 0
	add	w5, w5, 1
	.loc 1 201 0
	mov	w1, 0
	.loc 1 202 0
	cmp	w14, w5
	bhi	.L110
	.loc 1 204 0
	add	w19, w19, 1
	.loc 1 203 0
	mov	w5, 0
.L110:
	.loc 1 208 0
	ldrb	w3, [x0, w2, uxtw]
.LVL54:
	.loc 1 209 0
	cbz	w3, .L111
	.p2align 2
.L113:
	.loc 1 210 0
	lsl	w2, w19, 10
	add	w8, w1, 1
	add	w9, w2, w1, lsl 5
	add	w2, w5, w2
	add	w9, w9, w5
	.loc 1 211 0
	add	w7, w1, 2
	add	w8, w2, w8, lsl 5
	.loc 1 212 0
	add	w6, w1, 3
	add	w7, w2, w7, lsl 5
	.loc 1 213 0
	add	w2, w2, w6, lsl 5
	.loc 1 210 0
	strb	w10, [x4, w9, uxtw]
	.loc 1 213 0
	add	w1, w1, 4
	.loc 1 211 0
	strb	w11, [x4, w8, uxtw]
	.loc 1 209 0
	sub	w3, w3, #1
.LVL55:
	.loc 1 212 0
	strb	w12, [x4, w7, uxtw]
	.loc 1 214 0
	cmp	w14, w1
	.loc 1 213 0
	strb	w13, [x4, w2, uxtw]
	.loc 1 214 0
	bhi	.L112
	.loc 1 216 0
	add	w5, w5, 1
	.loc 1 215 0
	mov	w1, 0
	.loc 1 216 0
	cmp	w14, w5
	bhi	.L112
	.loc 1 218 0
	add	w19, w19, 1
	.loc 1 217 0
	mov	w5, 0
.L112:
	.loc 1 209 0
	ands	w3, w3, 255
.LVL56:
	bne	.L113
.L111:
	.loc 1 223 0
	add	w15, w15, 2
	mov	w6, 1
.LVL57:
.L114:
	.loc 1 177 0
	cmp	w19, 149
	bls	.L106
	.loc 1 178 0
	adrp	x0, .LC3
.LVL58:
	add	x0, x0, :lo12:.LC3
	bl	printk
.LVL59:
.L107:
	.loc 1 243 0
	mov	w0, w19
.LVL60:
.L103:
	.loc 1 244 0
	ldr	x19, [sp, 16]
.LVL61:
	ldp	x29, x30, [sp], 32
	.cfi_remember_state
	.cfi_restore 30
	.cfi_restore 29
	.cfi_restore 19
	.cfi_def_cfa 31, 0
	ret
.LVL62:
	.p2align 3
.L109:
	.cfi_restore_state
	.loc 1 227 0
	add	w10, w3, w1, lsl 5
	add	w9, w1, 1
	add	w3, w3, w5
	add	w10, w10, w5
	.loc 1 228 0
	add	w8, w1, 2
	add	w9, w3, w9, lsl 5
	.loc 1 229 0
	add	w7, w1, 3
	add	w8, w3, w8, lsl 5
	.loc 1 227 0
	and	w11, w2, 3
	.loc 1 230 0
	add	w3, w3, w7, lsl 5
	.loc 1 227 0
	strb	w11, [x4, w10, uxtw]
	.loc 1 228 0
	ubfx	x7, x2, 2, 2
	strb	w7, [x4, w9, uxtw]
	.loc 1 229 0
	ubfx	x7, x2, 4, 2
	strb	w7, [x4, w8, uxtw]
	.loc 1 230 0
	lsr	w2, w2, 6
	strb	w2, [x4, w3, uxtw]
	add	w1, w1, 4
	.loc 1 231 0
	add	w15, w15, 1
	.loc 1 233 0
	cmp	w1, w14
	bcc	.L114
	.loc 1 235 0
	add	w5, w5, 1
	.loc 1 234 0
	mov	w1, 0
	.loc 1 235 0
	cmp	w14, w5
	bhi	.L114
	.loc 1 237 0
	add	w19, w19, 1
	.loc 1 236 0
	mov	w5, 0
	.loc 1 234 0
	mov	w1, w6
	b	.L114
.LVL63:
	.p2align 3
.L128:
	.loc 1 189 0
	add	w15, w15, 1
	.loc 1 188 0
	eor	w6, w6, 1
	ldrb	w2, [x0, w15, uxtw]
	b	.L108
.LVL64:
.L127:
	.loc 1 172 0
	adrp	x0, .LC2
.LVL65:
	add	x0, x0, :lo12:.LC2
	bl	printk
.LVL66:
	.loc 1 173 0
	mov	w0, -22
	b	.L103
	.cfi_endproc
.LFE1549:
	.size	decodewaveform_32, .-decodewaveform_32
	.align	2
	.p2align 3,,7
	.global	decodewaveform_auto
	.type	decodewaveform_auto, %function
decodewaveform_auto:
.LFB1550:
	.loc 1 250 0
	.cfi_startproc
.LVL67:
	stp	x29, x30, [sp, -48]!
	.cfi_def_cfa_offset 48
	.cfi_offset 29, -48
	.cfi_offset 30, -40
	add	x29, sp, 0
	.cfi_def_cfa_register 29
	stp	x19, x20, [sp, 16]
	.cfi_offset 19, -32
	.cfi_offset 20, -24
	.loc 1 259 0
	adrp	x20, .LANCHOR0
	.loc 1 250 0
	stp	x21, x22, [sp, 32]
	.cfi_offset 21, -16
	.cfi_offset 22, -8
	.loc 1 259 0
	ldr	x9, [x20, #:lo12:.LANCHOR0]
	cbz	x9, .L179
	.loc 1 264 0
	adrp	x21, .LANCHOR1
	.loc 1 257 0
	mov	w3, 15
	mov	w22, w1
	mov	w12, 30
	.loc 1 264 0
	ldr	w11, [x21, #:lo12:.LANCHOR1]
	mov	w2, 1
.LVL68:
	mov	w13, 0
	mov	w19, 0
.LVL69:
	.loc 1 257 0
	cmp	w11, 32
	mov	w4, 0
	csel	w12, w12, w3, eq
.LVL70:
	mov	w3, 0
	.p2align 2
.L133:
	.loc 1 273 0
	ldrb	w10, [x0, w13, uxtw]
	cmp	w10, 255
	beq	.L134
	.loc 1 278 0
	cmp	w10, 252
	beq	.L180
.L135:
	.loc 1 285 0
	cmp	w4, 0
	ccmp	w12, w4, 4, ne
	.loc 1 283 0
	cbz	w2, .L136
	.loc 1 285 0
	bne	.L137
	.loc 1 286 0
	lsl	w2, w19, 10
.LVL71:
	add	w7, w3, 1
	add	w8, w2, w3, lsl 5
	add	w2, w2, w4
	add	w8, w8, w4
	.loc 1 287 0
	add	w6, w3, 2
	add	w7, w2, w7, lsl 5
	.loc 1 288 0
	add	w5, w3, 3
	add	w6, w2, w6, lsl 5
	.loc 1 286 0
	and	w14, w10, 3
	.loc 1 289 0
	add	w2, w2, w5, lsl 5
	.loc 1 286 0
	strb	w14, [x9, w8, uxtw]
	.loc 1 287 0
	ubfx	x5, x10, 2, 2
	strb	w5, [x9, w7, uxtw]
	.loc 1 289 0
	add	w3, w3, 4
	.loc 1 288 0
	ubfx	x5, x10, 4, 2
	strb	w5, [x9, w6, uxtw]
	.loc 1 289 0
	lsr	w5, w10, 6
	strb	w5, [x9, w2, uxtw]
.LVL72:
.L138:
	.loc 1 293 0
	add	w2, w13, 1
.LVL73:
	.loc 1 295 0
	cmp	w3, w11
	bcc	.L139
	.loc 1 297 0
	add	w4, w4, 1
	.loc 1 296 0
	mov	w3, 0
	.loc 1 297 0
	cmp	w11, w4
	bhi	.L139
	.loc 1 299 0
	add	w19, w19, 1
	.loc 1 298 0
	mov	w4, 0
.L139:
	.loc 1 303 0
	ldrb	w17, [x0, w2, uxtw]
	.loc 1 304 0
	cbz	w17, .L140
	.loc 1 307 0
	ubfx	x16, x10, 2, 2
	.loc 1 308 0
	ubfx	x15, x10, 4, 2
	.loc 1 309 0
	lsr	w14, w10, 6
	.loc 1 306 0
	and	w10, w10, 3
	b	.L144
	.p2align 3
.L181:
	strb	w10, [x9, w8, uxtw]
	.loc 1 309 0
	add	w3, w3, 4
	.loc 1 307 0
	strb	w16, [x9, w7, uxtw]
	.loc 1 308 0
	strb	w15, [x9, w6, uxtw]
	.loc 1 309 0
	strb	w14, [x9, w2, uxtw]
.L142:
	.loc 1 304 0
	sub	w2, w17, #1
	.loc 1 313 0
	cmp	w3, w11
	bcc	.L143
	.loc 1 315 0
	add	w4, w4, 1
	.loc 1 314 0
	mov	w3, 0
	.loc 1 315 0
	cmp	w11, w4
	bhi	.L143
	.loc 1 317 0
	add	w19, w19, 1
	.loc 1 316 0
	mov	w4, 0
.L143:
	.loc 1 304 0
	ands	w17, w2, 255
	beq	.L140
.L144:
	.loc 1 306 0
	lsl	w2, w19, 10
	add	w5, w3, 1
	add	w6, w2, w3, lsl 5
	add	w2, w2, w4
	.loc 1 307 0
	add	w7, w2, w5, lsl 5
	.loc 1 306 0
	add	w8, w6, w4
	.loc 1 308 0
	add	w5, w3, 3
	.loc 1 307 0
	add	w6, w3, 2
	.loc 1 305 0
	cmp	w4, 0
	.loc 1 308 0
	add	w6, w2, w6, lsl 5
	.loc 1 305 0
	ccmp	w12, w4, 4, ne
	.loc 1 309 0
	add	w2, w2, w5, lsl 5
	.loc 1 305 0
	beq	.L181
	.loc 1 311 0
	add	w3, w3, 4
	b	.L142
	.p2align 3
.L140:
	.loc 1 322 0
	add	w13, w13, 2
	mov	w2, 1
.LVL74:
.L145:
	.loc 1 268 0
	cmp	w19, 149
	bls	.L133
	.loc 1 269 0
	adrp	x0, .LC3
.LVL75:
	add	x0, x0, :lo12:.LC3
	bl	printk
.LVL76:
.L134:
	.loc 1 346 0
	ldr	w0, [x21, #:lo12:.LANCHOR1]
.LVL77:
	cmp	w0, 32
	beq	.L148
.LVL78:
.L156:
	.loc 1 359 0
	and	w0, w19, 255
	and	w5, w19, 255
	cmp	w0, w22
	bge	.L150
	ldr	x2, [x20, #:lo12:.LANCHOR0]
.LVL79:
	.p2align 2
.L158:
	lsl	w0, w0, 10
	add	w4, w0, 512
.LVL80:
	.p2align 2
.L157:
	.loc 1 362 0
	add	w3, w0, 15
	strb	wzr, [x2, w0, uxtw]
	add	w0, w0, 32
	.loc 1 360 0
	cmp	w4, w0
	.loc 1 362 0
	strb	wzr, [x2, w3, uxtw]
	.loc 1 360 0
	bne	.L157
	.loc 1 359 0 discriminator 2
	add	w5, w5, 1
	and	w5, w5, 255
	mov	w0, w5
	cmp	w22, w5
	bgt	.L158
.LVL81:
.L150:
	.loc 1 367 0
	mov	w0, w19
.L129:
	.loc 1 368 0
	ldp	x19, x20, [sp, 16]
.LVL82:
	ldp	x21, x22, [sp, 32]
.LVL83:
	ldp	x29, x30, [sp], 48
	.cfi_remember_state
	.cfi_restore 30
	.cfi_restore 29
	.cfi_restore 21
	.cfi_restore 22
	.cfi_restore 19
	.cfi_restore 20
	.cfi_def_cfa 31, 0
	ret
.LVL84:
	.p2align 3
.L136:
	.cfi_restore_state
	.loc 1 326 0
	bne	.L146
	.loc 1 327 0
	lsl	w5, w19, 10
	add	w8, w3, 1
	add	w14, w5, w3, lsl 5
	add	w5, w5, w4
	add	w14, w14, w4
	.loc 1 328 0
	add	w7, w3, 2
	add	w8, w5, w8, lsl 5
	.loc 1 329 0
	add	w6, w3, 3
	add	w7, w5, w7, lsl 5
	.loc 1 327 0
	and	w15, w10, 3
	.loc 1 330 0
	add	w5, w5, w6, lsl 5
	.loc 1 327 0
	strb	w15, [x9, w14, uxtw]
	.loc 1 328 0
	ubfx	x6, x10, 2, 2
	strb	w6, [x9, w8, uxtw]
	.loc 1 330 0
	add	w3, w3, 4
	.loc 1 329 0
	ubfx	x6, x10, 4, 2
	strb	w6, [x9, w7, uxtw]
	.loc 1 330 0
	lsr	w10, w10, 6
	strb	w10, [x9, w5, uxtw]
.L147:
	.loc 1 334 0
	add	w13, w13, 1
	.loc 1 336 0
	cmp	w3, w11
	bcc	.L145
	.loc 1 338 0
	add	w4, w4, 1
	.loc 1 337 0
	mov	w3, 0
	.loc 1 338 0
	cmp	w11, w4
	bhi	.L145
	.loc 1 340 0
	add	w19, w19, 1
	.loc 1 339 0
	mov	w4, 0
	b	.L145
.L180:
	.loc 1 280 0
	add	w13, w13, 1
	.loc 1 279 0
	eor	w2, w2, 1
	ldrb	w10, [x0, w13, uxtw]
	b	.L135
.L137:
	.loc 1 291 0
	add	w3, w3, 4
	b	.L138
.L146:
	.loc 1 332 0
	add	w3, w3, 4
	b	.L147
.LVL85:
.L148:
	.loc 1 348 0 discriminator 1
	cmp	w22, 0
	ble	.L150
	ldr	x2, [x20, #:lo12:.LANCHOR0]
.LVL86:
	.loc 1 348 0 is_stmt 0
	mov	w8, 0
	mov	w9, 0
.LVL87:
.L155:
	lsl	w8, w8, 10
	mov	w7, 0
	mov	w6, w8
	.p2align 2
.L153:
	lsr	w5, w7, 1
	.loc 1 314 0 is_stmt 1
	mov	w0, 0
	add	w5, w8, w5, lsl 5
	.p2align 2
.L152:
	.loc 1 351 0 discriminator 3
	add	w4, w6, w0
.LVL88:
	.loc 1 352 0 discriminator 3
	add	w3, w5, w0, lsr 1
	.loc 1 350 0 discriminator 3
	add	w0, w0, 2
	cmp	w0, 32
	.loc 1 351 0 discriminator 3
	ldrb	w4, [x2, w4, uxtw]
.LVL89:
	.loc 1 352 0 discriminator 3
	strb	w4, [x2, w3, uxtw]
	.loc 1 350 0 discriminator 3
	bne	.L152
	.loc 1 349 0 discriminator 2
	add	w7, w7, 2
	add	w6, w6, 64
	cmp	w7, 32
	bne	.L153
	.loc 1 348 0 discriminator 2
	add	w9, w9, 1
	and	w9, w9, 255
	mov	w8, w9
	cmp	w9, w22
	blt	.L155
	b	.L156
.LVL90:
.L179:
	.loc 1 260 0
	adrp	x0, .LC2
.LVL91:
	add	x0, x0, :lo12:.LC2
	bl	printk
.LVL92:
	.loc 1 261 0
	mov	w0, -22
	b	.L129
	.cfi_endproc
.LFE1550:
	.size	decodewaveform_auto, .-decodewaveform_auto
	.align	2
	.p2align 3,,7
	.global	pvi_wf_get_lut
	.type	pvi_wf_get_lut, %function
pvi_wf_get_lut:
.LFB1560:
	.loc 1 744 0
	.cfi_startproc
.LVL93:
	stp	x29, x30, [sp, -80]!
	.cfi_def_cfa_offset 80
	.cfi_offset 29, -80
	.cfi_offset 30, -72
	add	x29, sp, 0
	.cfi_def_cfa_register 29
	stp	x23, x24, [sp, 48]
	.cfi_offset 23, -32
	.cfi_offset 24, -24
	.loc 1 751 0
	adrp	x23, .LANCHOR0
	add	x4, x23, :lo12:.LANCHOR0
	.loc 1 744 0
	stp	x19, x20, [sp, 16]
	stp	x21, x22, [sp, 32]
	str	x25, [sp, 64]
	.cfi_offset 19, -64
	.cfi_offset 20, -56
	.cfi_offset 21, -48
	.cfi_offset 22, -40
	.cfi_offset 25, -16
	.loc 1 751 0
	ldr	x4, [x4, 48]
	cbz	x4, .L215
	.loc 1 754 0
	cbz	x0, .L232
.L184:
	mov	x21, x0
	.loc 1 757 0
	adrp	x0, .LANCHOR1
.LVL94:
	mov	w19, w3
	mov	w3, w2
.LVL95:
	ldr	w2, [x0, #:lo12:.LANCHOR1]
.LVL96:
	mov	w22, w1
	add	x6, x0, :lo12:.LANCHOR1
	cmp	w2, w19
	blt	.L233
	.loc 1 764 0
	ldr	w5, [x6, 4]
	mov	w1, 21846
	movk	w1, 0x5555, lsl 16
	smull	x2, w3, w1
	smull	x1, w5, w1
	lsr	x2, x2, 32
	lsr	x1, x1, 32
	sub	w2, w2, w3, asr 31
	sub	w1, w1, w5, asr 31
	cmp	w2, w1
	beq	.L234
.L186:
	.loc 1 767 0
	add	x0, x0, :lo12:.LANCHOR1
.LBB31:
.LBB32:
	.loc 1 525 0
	ldrb	w1, [x4, 38]
.LVL97:
.LBE32:
.LBE31:
	.loc 1 768 0
	stp	w3, w22, [x0, 4]
.LBB35:
.LBB33:
	.loc 1 529 0
	cbz	w1, .L187
	.loc 1 530 0
	ldrb	w0, [x4, 48]
	cmp	w3, w0
	blt	.L217
	mov	w20, 0
.LVL98:
	b	.L189
.L190:
	ldrb	w2, [x4, w2, sxtw]
	cmp	w3, w2
	blt	.L214
	mov	w20, w0
.L189:
	.loc 1 529 0
	add	w0, w20, 1
	.loc 1 530 0
	add	w2, w20, 49
	.loc 1 529 0
	cmp	w1, w0
	bne	.L190
.L187:
	.loc 1 537 0
	sub	w20, w1, #1
.L214:
.LBE33:
.LBE35:
	.loc 1 772 0
	ldr	x0, [x21, 16]
	.loc 1 775 0
	sub	w1, w22, #1
.LVL99:
	.loc 1 772 0
	add	x25, x23, :lo12:.LANCHOR0
	.loc 1 775 0
	cmp	w1, 10
	.loc 1 772 0
	add	x0, x0, 9764864
	str	x0, [x23, #:lo12:.LANCHOR0]
	.loc 1 775 0
	bhi	.L191
.LBB36:
.LBB37:
	.loc 1 715 0
	mov	w0, w22
	bl	get_wf_mode_index
.LVL100:
.LBB38:
.LBB39:
	.loc 1 580 0
	ldr	x2, [x25, 48]
.LVL101:
.LBE39:
.LBE38:
	.loc 1 716 0
	cmp	w19, 32
	cset	w24, eq
	cmp	w22, 5
	cset	w1, eq
	orr	w24, w24, w1
.LBB44:
.LBB40:
	.loc 1 584 0
	ldrb	w1, [x2, 32]
	add	w1, w1, w0, lsl 2
	.loc 1 587 0
	add	x3, x2, x1, sxtw
	.loc 1 586 0
	ldrb	w4, [x2, w1, sxtw]
	.loc 1 588 0
	ldrb	w0, [x3, 2]
	.loc 1 587 0
	ldrb	w1, [x3, 1]
	.loc 1 589 0
	ldrb	w5, [x3, 3]
	.loc 1 590 0
	add	w3, w1, w0
	add	w3, w3, w4
	cmp	w5, w3, uxtb
.LBE40:
.LBE44:
	.loc 1 716 0
	cbz	w24, .L193
.LBB45:
.LBB41:
	.loc 1 590 0
	bne	.L235
	.loc 1 595 0
	lsl	w0, w0, 16
	.loc 1 597 0
	lsl	w20, w20, 2
.LVL102:
	.loc 1 595 0
	orr	w1, w0, w1, lsl 8
	orr	w1, w1, w4
	.loc 1 597 0
	add	w1, w20, w1
	.loc 1 600 0
	add	x3, x2, x1, sxtw
	.loc 1 599 0
	ldrb	w4, [x2, w1, sxtw]
	.loc 1 601 0
	ldrb	w0, [x3, 2]
	.loc 1 600 0
	ldrb	w1, [x3, 1]
	.loc 1 602 0
	ldrb	w5, [x3, 3]
	.loc 1 604 0
	add	w3, w1, w0
	add	w3, w3, w4
	cmp	w5, w3, uxtb
	bne	.L236
	.loc 1 609 0
	lsl	w0, w0, 16
	orr	w0, w0, w1, lsl 8
	orr	w0, w0, w4
	.loc 1 611 0
	add	x0, x2, x0
	bl	decodewaveform_32
.LVL103:
	mov	w19, w0
.LVL104:
.L197:
.LBE41:
.LBE45:
	.loc 1 720 0
	tbnz	w19, #31, .L195
	.loc 1 724 0
	str	w19, [x21]
	.loc 1 726 0
	cmp	w22, 5
	beq	.L237
	.loc 1 734 0
	cbnz	w24, .L238
	.loc 1 737 0
	ldr	x0, [x21, 16]
	mov	w1, w19
	bl	pvi_lut_init_wf_table
.LVL105:
.L230:
.LBE37:
.LBE36:
	.loc 1 796 0
	mov	w0, 0
	.loc 1 797 0
	ldr	x25, [sp, 64]
	ldp	x19, x20, [sp, 16]
.LVL106:
	ldp	x21, x22, [sp, 32]
.LVL107:
	ldp	x23, x24, [sp, 48]
	ldp	x29, x30, [sp], 80
	.cfi_remember_state
	.cfi_restore 30
	.cfi_restore 29
	.cfi_restore 25
	.cfi_restore 23
	.cfi_restore 24
	.cfi_restore 21
	.cfi_restore 22
	.cfi_restore 19
	.cfi_restore 20
	.cfi_def_cfa 31, 0
	ret
.LVL108:
.L236:
	.cfi_restore_state
.LBB73:
.LBB68:
.LBB46:
.LBB42:
	.loc 1 605 0
	adrp	x1, .LANCHOR2
	adrp	x0, .LC5
	mov	w2, 605
.LVL109:
	add	x1, x1, :lo12:.LANCHOR2
	add	x0, x0, :lo12:.LC5
	bl	printk
.LVL110:
.L195:
.LBE42:
.LBE46:
	.loc 1 721 0
	adrp	x0, .LC6
	add	x0, x0, :lo12:.LC6
	bl	printk
.LVL111:
.LBE68:
.LBE73:
	.loc 1 797 0
	ldr	x25, [sp, 64]
	.loc 1 789 0
	mov	w0, -1
	.loc 1 797 0
	ldp	x19, x20, [sp, 16]
.LVL112:
	ldp	x21, x22, [sp, 32]
.LVL113:
	ldp	x23, x24, [sp, 48]
	ldp	x29, x30, [sp], 80
	.cfi_remember_state
	.cfi_restore 20
	.cfi_restore 19
	.cfi_restore 22
	.cfi_restore 21
	.cfi_restore 24
	.cfi_restore 23
	.cfi_restore 25
	.cfi_restore 29
	.cfi_restore 30
	.cfi_def_cfa 31, 0
	ret
.LVL114:
.L235:
	.cfi_restore_state
.LBB74:
.LBB69:
.LBB47:
.LBB43:
	.loc 1 591 0
	adrp	x1, .LANCHOR2
	adrp	x0, .LC5
	mov	w2, 591
.LVL115:
	add	x1, x1, :lo12:.LANCHOR2
	add	x0, x0, :lo12:.LC5
	bl	printk
.LVL116:
	b	.L195
.LVL117:
.L237:
.LBE43:
.LBE47:
.LBB48:
.LBB49:
	.loc 1 616 0
	add	x23, x23, :lo12:.LANCHOR0
.LBE49:
.LBE48:
	.loc 1 727 0
	mov	w0, 4
	bl	get_wf_mode_index
.LVL118:
.LBB54:
.LBB50:
	.loc 1 616 0
	ldr	x2, [x23, 48]
.LVL119:
	.loc 1 620 0
	ldrb	w1, [x2, 32]
	add	w0, w1, w0, lsl 2
	.loc 1 623 0
	add	x3, x2, x0, sxtw
	.loc 1 622 0
	ldrb	w4, [x2, w0, sxtw]
	.loc 1 624 0
	ldrb	w1, [x3, 2]
	.loc 1 623 0
	ldrb	w0, [x3, 1]
	.loc 1 625 0
	ldrb	w5, [x3, 3]
	.loc 1 626 0
	add	w3, w0, w1
	add	w3, w3, w4
	cmp	w5, w3, uxtb
	bne	.L239
	.loc 1 631 0
	lsl	w1, w1, 16
	orr	w0, w1, w0, lsl 8
	orr	w0, w0, w4
	.loc 1 633 0
	add	w20, w20, w0
	.loc 1 636 0
	add	x3, x2, x20, sxtw
	.loc 1 635 0
	ldrb	w4, [x2, w20, sxtw]
	.loc 1 636 0
	ldrb	w0, [x3, 1]
	.loc 1 637 0
	ldrb	w1, [x3, 2]
	.loc 1 638 0
	ldrb	w5, [x3, 3]
	.loc 1 640 0
	add	w3, w0, w1
	add	w3, w3, w4
	cmp	w5, w3, uxtb
	bne	.L240
	.loc 1 645 0
	lsl	w3, w1, 16
	.loc 1 647 0
	mov	w1, w19
	.loc 1 645 0
	orr	w0, w3, w0, lsl 8
	orr	w0, w0, w4
	.loc 1 647 0
	add	x0, x2, x0
	bl	decodewaveform_auto
.LVL120:
	lsl	w20, w0, 8
.LBE50:
.LBE54:
	.loc 1 729 0
	cmp	w0, 0
	ble	.L203
.L206:
	.loc 1 731 0
	ldr	x0, [x21, 16]
	mov	w1, w19
	bl	pvi_lut_init_wf_table
.LVL121:
	.loc 1 732 0
	ldr	w1, [x21]
.LBE69:
.LBE74:
	.loc 1 796 0
	mov	w0, 0
.LBB75:
.LBB70:
	.loc 1 732 0
	orr	w20, w1, w20
	str	w20, [x21]
.LBE70:
.LBE75:
	.loc 1 797 0
	ldp	x19, x20, [sp, 16]
.LVL122:
	ldp	x21, x22, [sp, 32]
.LVL123:
	ldp	x23, x24, [sp, 48]
	ldr	x25, [sp, 64]
	ldp	x29, x30, [sp], 80
	.cfi_remember_state
	.cfi_restore 20
	.cfi_restore 19
	.cfi_restore 22
	.cfi_restore 21
	.cfi_restore 24
	.cfi_restore 23
	.cfi_restore 25
	.cfi_restore 29
	.cfi_restore 30
	.cfi_def_cfa 31, 0
	ret
.LVL124:
.L238:
	.cfi_restore_state
.LBB76:
.LBB71:
	.loc 1 735 0
	ldr	x6, [x21, 16]
.LBB55:
.LBB56:
	.loc 1 655 0
	cbz	w19, .L230
	ldr	x5, [x23, #:lo12:.LANCHOR0]
	mov	w9, 0
.LVL125:
.L213:
	lsl	w8, w9, 10
	lsl	w4, w9, 16
	mov	w7, 0
	.p2align 2
.L211:
	lsr	w3, w7, 3
.LBE56:
.LBE55:
.LBB60:
.LBB51:
	.loc 1 641 0
	mov	x0, 0
	add	w3, w8, w3, lsl 5
	.p2align 2
.L210:
.LBE51:
.LBE60:
.LBB61:
.LBB59:
.LBB57:
	.loc 1 660 0
	ubfx	x1, x0, 3, 13
	.loc 1 661 0
	add	w2, w4, w0
	.loc 1 660 0
	add	w1, w1, w3
	add	x0, x0, 1
.LBE57:
	.loc 1 657 0
	cmp	x0, 256
.LBB58:
	.loc 1 660 0
	ldrb	w1, [x5, w1, sxtw]
	and	w1, w1, 3
	.loc 1 661 0
	strb	w1, [x6, w2, sxtw]
.LBE58:
	.loc 1 657 0
	bne	.L210
	.loc 1 656 0
	add	w7, w7, 1
.LVL126:
	add	w4, w4, 256
	and	w7, w7, 65535
.LVL127:
	cmp	w7, 256
	bne	.L211
	.loc 1 655 0
	add	w9, w9, 1
	cmp	w19, w9
	bne	.L213
	b	.L230
.LVL128:
.L239:
.LBE59:
.LBE61:
.LBB62:
.LBB52:
	.loc 1 627 0
	adrp	x1, .LANCHOR2
	add	x1, x1, :lo12:.LANCHOR2
	adrp	x0, .LC5
	mov	w2, 627
.LVL129:
	add	x1, x1, 40
	add	x0, x0, :lo12:.LC5
	mov	w20, -5632
	bl	printk
.LVL130:
.L203:
.LBE52:
.LBE62:
	.loc 1 730 0
	adrp	x0, .LC7
	add	x0, x0, :lo12:.LC7
	bl	printk
.LVL131:
	b	.L206
.LVL132:
.L240:
.LBB63:
.LBB53:
	.loc 1 641 0
	adrp	x1, .LANCHOR2
	add	x1, x1, :lo12:.LANCHOR2
	adrp	x0, .LC5
	mov	w2, 641
.LVL133:
	add	x1, x1, 40
	mov	w20, -5632
	add	x0, x0, :lo12:.LC5
	bl	printk
.LVL134:
	b	.L203
.LVL135:
.L193:
.LBE53:
.LBE63:
.LBB64:
.LBB65:
	.loc 1 554 0
	bne	.L241
	.loc 1 559 0
	lsl	w0, w0, 16
	.loc 1 561 0
	lsl	w20, w20, 2
.LVL136:
	.loc 1 559 0
	orr	w1, w0, w1, lsl 8
	orr	w1, w1, w4
	.loc 1 561 0
	add	w1, w20, w1
.LVL137:
	.loc 1 564 0
	add	x3, x2, x1, sxtw
	.loc 1 563 0
	ldrb	w4, [x2, w1, sxtw]
	.loc 1 565 0
	ldrb	w0, [x3, 2]
	.loc 1 564 0
	ldrb	w1, [x3, 1]
	.loc 1 566 0
	ldrb	w5, [x3, 3]
	.loc 1 568 0
	add	w3, w1, w0
	add	w3, w3, w4
	cmp	w5, w3, uxtb
	bne	.L242
	.loc 1 573 0
	lsl	w0, w0, 16
	orr	w0, w0, w1, lsl 8
	orr	w0, w0, w4
	.loc 1 575 0
	add	x0, x2, x0
	bl	decodewaveform
.LVL138:
	mov	w19, w0
.LVL139:
	b	.L197
.LVL140:
.L191:
.LBE65:
.LBE64:
.LBE71:
.LBE76:
	.loc 1 792 0
	mov	w1, w22
	adrp	x0, .LC8
	add	x0, x0, :lo12:.LC8
	bl	printk
.LVL141:
	.loc 1 793 0
	mov	w0, -1
	.loc 1 797 0
	ldr	x25, [sp, 64]
	ldp	x19, x20, [sp, 16]
.LVL142:
	ldp	x21, x22, [sp, 32]
.LVL143:
	ldp	x23, x24, [sp, 48]
	ldp	x29, x30, [sp], 80
	.cfi_remember_state
	.cfi_restore 20
	.cfi_restore 19
	.cfi_restore 22
	.cfi_restore 21
	.cfi_restore 24
	.cfi_restore 23
	.cfi_restore 25
	.cfi_restore 29
	.cfi_restore 30
	.cfi_def_cfa 31, 0
	ret
.LVL144:
.L242:
	.cfi_restore_state
.LBB77:
.LBB72:
.LBB67:
.LBB66:
	.loc 1 569 0
	adrp	x1, .LANCHOR2
	add	x1, x1, :lo12:.LANCHOR2
	adrp	x0, .LC5
	mov	w2, 569
.LVL145:
	add	x1, x1, 24
	add	x0, x0, :lo12:.LC5
	bl	printk
.LVL146:
	b	.L195
.LVL147:
.L241:
	.loc 1 555 0
	adrp	x1, .LANCHOR2
	add	x1, x1, :lo12:.LANCHOR2
	adrp	x0, .LC5
	mov	w2, 555
.LVL148:
	add	x1, x1, 24
	add	x0, x0, :lo12:.LC5
	bl	printk
.LVL149:
	b	.L195
.LVL150:
.L217:
.LBE66:
.LBE67:
.LBE72:
.LBE77:
.LBB78:
.LBB34:
	.loc 1 530 0
	mov	w20, -1
.LVL151:
	b	.L214
.LVL152:
.L234:
.LBE34:
.LBE78:
	.loc 1 764 0 discriminator 1
	ldr	w1, [x6, 8]
	cmp	w1, w22
	ccmn	w19, #1, 0, eq
	bne	.L186
	b	.L230
.L233:
	.loc 1 758 0
	mov	w1, w19
	adrp	x0, .LC4
	add	x0, x0, :lo12:.LC4
	bl	printk
.LVL153:
	.loc 1 759 0
	mov	w0, -22
	.loc 1 797 0
	ldr	x25, [sp, 64]
	ldp	x19, x20, [sp, 16]
.LVL154:
	ldp	x21, x22, [sp, 32]
.LVL155:
	ldp	x23, x24, [sp, 48]
	ldp	x29, x30, [sp], 80
	.cfi_remember_state
	.cfi_restore 20
	.cfi_restore 19
	.cfi_restore 22
	.cfi_restore 21
	.cfi_restore 24
	.cfi_restore 23
	.cfi_restore 25
	.cfi_restore 29
	.cfi_restore 30
	.cfi_def_cfa 31, 0
	ret
.LVL156:
.L232:
	.cfi_restore_state
	.loc 1 754 0 discriminator 1
	ldr	x5, [x0, 16]
	cbnz	x5, .L184
	.loc 1 755 0
	mov	w0, -22
.LVL157:
	.loc 1 797 0
	ldr	x25, [sp, 64]
	ldp	x19, x20, [sp, 16]
	ldp	x21, x22, [sp, 32]
	ldp	x23, x24, [sp, 48]
	ldp	x29, x30, [sp], 80
	.cfi_remember_state
	.cfi_restore 20
	.cfi_restore 19
	.cfi_restore 22
	.cfi_restore 21
	.cfi_restore 24
	.cfi_restore 23
	.cfi_restore 25
	.cfi_restore 29
	.cfi_restore 30
	.cfi_def_cfa 31, 0
	ret
.LVL158:
.L215:
	.cfi_restore_state
	.loc 1 752 0
	mov	w0, -19
.LVL159:
	.loc 1 797 0
	ldr	x25, [sp, 64]
	ldp	x19, x20, [sp, 16]
	ldp	x21, x22, [sp, 32]
	ldp	x23, x24, [sp, 48]
	ldp	x29, x30, [sp], 80
	.cfi_restore 20
	.cfi_restore 19
	.cfi_restore 22
	.cfi_restore 21
	.cfi_restore 24
	.cfi_restore 23
	.cfi_restore 25
	.cfi_restore 29
	.cfi_restore 30
	.cfi_def_cfa 31, 0
	ret
	.cfi_endproc
.LFE1560:
	.size	pvi_wf_get_lut, .-pvi_wf_get_lut
	.align	2
	.p2align 3,,7
	.global	pvi_wf_input
	.type	pvi_wf_input, %function
pvi_wf_input:
.LFB1561:
	.loc 1 806 0
	.cfi_startproc
.LVL160:
	stp	x29, x30, [sp, -32]!
	.cfi_def_cfa_offset 32
	.cfi_offset 29, -32
	.cfi_offset 30, -24
	add	x29, sp, 0
	.cfi_def_cfa_register 29
	stp	x19, x20, [sp, 16]
	.cfi_offset 19, -16
	.cfi_offset 20, -8
	.loc 1 809 0
	adrp	x19, .LANCHOR0
	add	x1, x19, :lo12:.LANCHOR0
	ldr	x1, [x1, 48]
	cbz	x1, .L273
	.loc 1 810 0
	mov	w0, -16
.LVL161:
.L243:
	.loc 1 836 0
	ldp	x19, x20, [sp, 16]
.LVL162:
	ldp	x29, x30, [sp], 32
	.cfi_remember_state
	.cfi_restore 30
	.cfi_restore 29
	.cfi_restore 19
	.cfi_restore 20
	.cfi_def_cfa 31, 0
	ret
.LVL163:
.L273:
	.cfi_restore_state
	.loc 1 812 0
	ldrb	w1, [x0, 16]
	mov	x20, x0
	adrp	x0, .LC9
.LVL164:
	add	x0, x0, :lo12:.LC9
	bl	printk
.LVL165:
	.loc 1 815 0
	ldrb	w1, [x20, 16]
	cmp	w1, 25
	bhi	.L246
	cmp	w1, 24
	bcs	.L247
	cmp	w1, 18
	beq	.L248
	cmp	w1, 22
	beq	.L247
	cmp	w1, 9
	beq	.L248
.L245:
	.loc 1 828 0
	ldrb	w2, [x20, 22]
	adrp	x0, .LC10
	add	x0, x0, :lo12:.LC10
	bl	printk
.LVL166:
	.loc 1 830 0
	mov	w0, -8
	b	.L243
.L274:
	.loc 1 815 0
	cmp	w1, 32
	bne	.L245
.L247:
	.loc 1 821 0
	adrp	x0, .LANCHOR1
	mov	w1, 32
	str	w1, [x0, #:lo12:.LANCHOR1]
.L248:
	.loc 1 833 0
	add	x19, x19, :lo12:.LANCHOR0
	.loc 1 835 0
	mov	w0, 0
	.loc 1 833 0
	str	x20, [x19, 48]
	.loc 1 835 0
	b	.L243
.L246:
	.loc 1 815 0
	cmp	w1, 35
	beq	.L248
	bls	.L274
	cmp	w1, 67
	beq	.L247
	cmp	w1, 84
	beq	.L248
	b	.L245
	.cfi_endproc
.LFE1561:
	.size	pvi_wf_input, .-pvi_wf_input
	.align	2
	.p2align 3,,7
	.global	pvi_wf_get_version
	.type	pvi_wf_get_version, %function
pvi_wf_get_version:
.LFB1562:
	.loc 1 845 0
	.cfi_startproc
	.loc 1 846 0
	adrp	x0, .LANCHOR0
	add	x0, x0, :lo12:.LANCHOR0
	ldr	x3, [x0, 48]
.LVL167:
	.loc 1 850 0
	cbz	x3, .L278
	.loc 1 854 0 discriminator 3
	add	x0, x0, 56
	mov	x1, 0
	.p2align 2
.L277:
	add	x2, x3, x1
	ldrb	w2, [x2, 65]
	strb	w2, [x1, x0]
	add	x1, x1, 1
	.loc 1 853 0 discriminator 3
	cmp	x1, 31
	bne	.L277
	.loc 1 856 0
	strb	wzr, [x0, 31]
	.loc 1 858 0
	ret
.L278:
	.loc 1 851 0
	mov	x0, 0
	.loc 1 859 0
	ret
	.cfi_endproc
.LFE1562:
	.size	pvi_wf_get_version, .-pvi_wf_get_version
	.section	.rodata
	.align	3
	.set	.LANCHOR2,. + 0
	.type	__func__.16939, %object
	.size	__func__.16939, 18
__func__.16939:
	.string	"get_wf_frm_num_32"
	.zero	6
	.type	__func__.16928, %object
	.size	__func__.16928, 15
__func__.16928:
	.string	"get_wf_frm_num"
	.zero	1
	.type	__func__.16951, %object
	.size	__func__.16951, 20
__func__.16951:
	.string	"get_wf_frm_num_auto"
	.data
	.align	2
	.set	.LANCHOR1,. + 0
	.type	maxpic, %object
	.size	maxpic, 4
maxpic:
	.word	16
	.type	sftemp.17009, %object
	.size	sftemp.17009, 4
sftemp.17009:
	.word	-1
	.type	stype.17008, %object
	.size	stype.17008, 4
stype.17008:
	.word	12
	.bss
	.align	3
	.set	.LANCHOR0,. + 0
	.type	waveformdata, %object
	.size	waveformdata, 8
waveformdata:
	.zero	8
	.type	pvi_modes.16879, %object
	.size	pvi_modes.16879, 36
pvi_modes.16879:
	.zero	36
	.zero	4
	.type	global_waveform, %object
	.size	global_waveform, 8
global_waveform:
	.zero	8
	.type	spi_id_buffer.17045, %object
	.size	spi_id_buffer.17045, 32
spi_id_buffer.17045:
	.zero	32
	.section	.rodata.str1.8,"aMS",@progbits,1
	.align	3
.LC0:
	.string	"pvi : Unknow waveform version %x,%x\n"
	.zero	3
.LC1:
	.string	"pvi: unspport PVI waveform type"
.LC2:
	.string	"waveformdata is NULL\n"
	.zero	2
.LC3:
	.string	"pvi: decodec waveform 19 error\n"
.LC4:
	.string	"pvi: unsupport, needpic = %d, maxpic = %d\n"
	.zero	5
.LC5:
	.string	"pvi: %s %d check error\n"
.LC6:
	.string	"pvi waveform get frame number failed\n"
	.zero	2
.LC7:
	.string	"Get GRAY2 waveform data failed during AUTO mode\n"
	.zero	7
.LC8:
	.string	"pvi: unsupport WF type = %d\n"
	.zero	3
.LC9:
	.string	"pvi : input waveform version 0x%x\n"
	.zero	5
.LC10:
	.string	"pvi : Unknow waveform version 0x%x, 0x%x, may be wrong waveform file\n"
	.text
.Letext0:
	.file 2 "./include/uapi/asm-generic/int-ll64.h"
	.file 3 "./include/asm-generic/int-ll64.h"
	.file 4 "./include/uapi/asm-generic/posix_types.h"
	.file 5 "./include/uapi/linux/types.h"
	.file 6 "./include/linux/types.h"
	.file 7 "./include/linux/ioport.h"
	.file 8 "./arch/arm64/include/asm/insn.h"
	.file 9 "./include/linux/init.h"
	.file 10 "./arch/arm64/include/asm/alternative.h"
	.file 11 "./include/asm-generic/atomic-long.h"
	.file 12 "./arch/arm64/include/asm/cache.h"
	.file 13 "./include/linux/printk.h"
	.file 14 "./include/linux/kernel.h"
	.file 15 "./include/linux/notifier.h"
	.file 16 "./include/asm-generic/qspinlock_types.h"
	.file 17 "./include/linux/lockdep.h"
	.file 18 "./include/linux/spinlock_types.h"
	.file 19 "./arch/arm64/include/asm/hwcap.h"
	.file 20 "./include/linux/jump_label.h"
	.file 21 "./arch/arm64/include/asm/jump_label.h"
	.file 22 "./arch/arm64/include/asm/cpufeature.h"
	.file 23 "./arch/arm64/include/uapi/asm/ptrace.h"
	.file 24 "./include/asm-generic/sections.h"
	.file 25 "./arch/arm64/include/asm/sections.h"
	.file 26 "./arch/arm64/include/asm/virt.h"
	.file 27 "./arch/arm64/include/asm/memory.h"
	.file 28 "./arch/arm64/include/asm/processor.h"
	.file 29 "./arch/arm64/include/asm/fpsimd.h"
	.file 30 "./include/linux/osq_lock.h"
	.file 31 "./include/linux/debug_locks.h"
	.file 32 "./include/linux/mutex.h"
	.file 33 "./include/linux/sched.h"
	.file 34 "./include/uapi/linux/time.h"
	.file 35 "./include/linux/restart_block.h"
	.file 36 "./include/linux/compat_time.h"
	.file 37 "./arch/arm64/include/asm/stack_pointer.h"
	.file 38 "./arch/arm64/include/asm/thread_info.h"
	.file 39 "./include/linux/cpumask.h"
	.file 40 "./include/linux/rcupdate.h"
	.file 41 "./include/linux/radix-tree.h"
	.file 42 "./include/linux/sched/debug.h"
	.file 43 "./include/linux/wait.h"
	.file 44 "./include/linux/seqlock.h"
	.file 45 "./include/linux/nodemask.h"
	.file 46 "./include/linux/stddef.h"
	.file 47 "./include/uapi/linux/personality.h"
	.file 48 "./include/linux/mmzone.h"
	.file 49 "./include/linux/rwsem.h"
	.file 50 "./include/linux/time.h"
	.file 51 "./include/linux/llist.h"
	.file 52 "./include/linux/smp.h"
	.file 53 "./include/asm-generic/percpu.h"
	.file 54 "./arch/arm64/include/asm/smp.h"
	.file 55 "./include/clocksource/arm_arch_timer.h"
	.file 56 "./arch/arm64/include/asm/arch_timer.h"
	.file 57 "./include/linux/timex.h"
	.file 58 "./include/linux/jiffies.h"
	.file 59 "./include/linux/ktime.h"
	.file 60 "./include/linux/timekeeping.h"
	.file 61 "./include/linux/timer.h"
	.file 62 "./include/linux/workqueue.h"
	.file 63 "./include/linux/completion.h"
	.file 64 "./include/linux/percpu.h"
	.file 65 "./arch/arm64/include/asm/topology.h"
	.file 66 "./include/linux/arch_topology.h"
	.file 67 "./include/linux/gfp.h"
	.file 68 "./include/linux/idr.h"
	.file 69 "./include/linux/rbtree.h"
	.file 70 "./include/linux/highuid.h"
	.file 71 "./include/linux/uidgid.h"
	.file 72 "./include/linux/kernfs.h"
	.file 73 "./include/linux/kobject_ns.h"
	.file 74 "./include/linux/pid.h"
	.file 75 "./include/linux/refcount.h"
	.file 76 "./include/linux/plist.h"
	.file 77 "./include/linux/timerqueue.h"
	.file 78 "./include/linux/hrtimer.h"
	.file 79 "./include/linux/seccomp.h"
	.file 80 "./include/uapi/asm-generic/signal.h"
	.file 81 "./include/uapi/asm-generic/siginfo.h"
	.file 82 "./include/linux/signal_types.h"
	.file 83 "./include/linux/mm_types_task.h"
	.file 84 "./include/linux/task_io_accounting.h"
	.file 85 "./include/uapi/linux/rseq.h"
	.file 86 "./include/linux/sysfs.h"
	.file 87 "./include/linux/kobject.h"
	.file 88 "./include/linux/kref.h"
	.file 89 "./include/linux/klist.h"
	.file 90 "./include/linux/pm.h"
	.file 91 "./include/linux/device.h"
	.file 92 "./include/linux/pm_wakeup.h"
	.file 93 "./include/linux/ratelimit.h"
	.file 94 "./arch/arm64/include/asm/device.h"
	.file 95 "./include/linux/slab.h"
	.file 96 "drivers/gpu/drm/rockchip/ebc-dev/epdlut/epd_lut.h"
	.section	.note.GNU-stack,"",@progbits
