// SPDX-License-Identifier: GPL-2.0
/*
 * Copyright (c) 2020 Rockchip Electronics Co. Ltd.
 *
 * Author: Zorro Liu <zorro.liu@rock-chips.com>
 */

	.arch armv8-a
	.file	"rkf_waveform.c"
	.text
.Ltext0:
	.cfi_sections	.debug_frame
	.align	2
	.p2align 3,,7
	.type	decode_wf_data, %function
decode_wf_data:
.LFB1557:
	.file 1 "drivers/gpu/drm/rockchip/ebc-dev/epdlut/rkf_waveform.c"
	.loc 1 242 0
	.cfi_startproc
.LVL0:
	stp	x29, x30, [sp, -48]!
	.cfi_def_cfa_offset 48
	.cfi_offset 29, -48
	.cfi_offset 30, -40
	add	x29, sp, 0
	.cfi_def_cfa_register 29
	stp	x19, x20, [sp, 16]
	.cfi_offset 19, -32
	.cfi_offset 20, -24
	.loc 1 245 0
	uxtw	x20, w1
.LBB185:
.LBB186:
.LBB187:
	.file 2 "./include/linux/slab.h"
	.loc 2 553 0
	mov	w1, 32960
.LVL1:
.LBE187:
.LBE186:
.LBE185:
	.loc 1 242 0
	str	x21, [sp, 32]
	.cfi_offset 21, -16
.LBB192:
.LBB190:
.LBB188:
	.loc 2 553 0
	movk	w1, 0x60, lsl 16
.LBE188:
.LBE190:
.LBE192:
	.loc 1 242 0
	mov	x21, x0
.LBB193:
.LBB191:
.LBB189:
	.loc 2 553 0
	mov	x0, x20
.LVL2:
	bl	__kmalloc
.LVL3:
	mov	x19, x0
.LBE189:
.LBE191:
.LBE193:
	.loc 1 246 0
	cbz	x0, .L2
	.loc 1 249 0
	mov	x2, x20
	add	x1, x21, 4
	bl	memcpy
.LVL4:
.L2:
	.loc 1 252 0
	mov	x0, x19
	ldr	x21, [sp, 32]
.LVL5:
	ldp	x19, x20, [sp, 16]
	ldp	x29, x30, [sp], 48
	.cfi_restore 30
	.cfi_restore 29
	.cfi_restore 21
	.cfi_restore 19
	.cfi_restore 20
	.cfi_def_cfa 31, 0
	ret
	.cfi_endproc
.LFE1557:
	.size	decode_wf_data, .-decode_wf_data
	.align	2
	.p2align 3,,7
	.type	rkf_lut_init_wf_table.isra.1, %function
rkf_lut_init_wf_table.isra.1:
.LFB1567:
	.loc 1 447 0
	.cfi_startproc
.LVL6:
	.loc 1 452 0
	cmp	w2, 0
	ble	.L17
	sub	w9, w2, #1
	mov	w7, 512
	add	x9, x9, 1
	mov	x8, 0
	lsl	x9, x9, 6
.L13:
	ldr	x5, [x0]
	lsl	w6, w8, 4
	add	x5, x5, x8
	.p2align 2
.L10:
	mov	w4, w6
	mov	w3, 0
	.p2align 2
.L11:
.LBB194:
.LBB195:
	.loc 1 456 0
	ldr	w2, [x5]
.LVL7:
	lsr	w2, w2, w3
	and	w2, w2, 3
	.loc 1 457 0
	strb	w2, [x1, w4, uxtw]
	add	w3, w3, 2
	add	w4, w4, 1
.LBE195:
	.loc 1 455 0
	cmp	w3, 32
	bne	.L11
	add	w6, w6, 32
	add	x5, x5, 4
	.loc 1 454 0
	cmp	w7, w6
	bne	.L10
	add	x8, x8, 64
	add	w7, w7, 1024
.LBE194:
	.loc 1 452 0
	cmp	x9, x8
	bne	.L13
.LVL8:
.L17:
	.loc 1 463 0
	mov	w0, 0
	ret
	.cfi_endproc
.LFE1567:
	.size	rkf_lut_init_wf_table.isra.1, .-rkf_lut_init_wf_table.isra.1
	.align	2
	.p2align 3,,7
	.type	parse_wf_gray16.isra.3, %function
parse_wf_gray16.isra.3:
.LFB1569:
	.loc 1 351 0
	.cfi_startproc
.LVL9:
	stp	x29, x30, [sp, -32]!
	.cfi_def_cfa_offset 32
	.cfi_offset 29, -32
	.cfi_offset 30, -24
.LBB204:
.LBB205:
	.loc 1 188 0
	adrp	x3, .LANCHOR0
	.loc 1 195 0
	cmp	w2, 3
.LBE205:
.LBE204:
	.loc 1 351 0
	add	x29, sp, 0
	.cfi_def_cfa_register 29
	stp	x19, x20, [sp, 16]
	.cfi_offset 19, -16
	.cfi_offset 20, -8
	.loc 1 351 0
	mov	x20, x0
.LBB216:
.LBB214:
	.loc 1 188 0
	ldr	x0, [x3, #:lo12:.LANCHOR0]
.LVL10:
	.loc 1 195 0
	beq	.L20
	bls	.L42
	cmp	w2, 5
	beq	.L25
	bcc	.L26
	.loc 1 221 0
	add	x4, x0, 532
.LVL11:
	.loc 1 222 0
	add	x5, x0, 2132
.LVL12:
	.loc 1 195 0
	cmp	w2, 6
	beq	.L28
	.loc 1 225 0
	mov	x0, 0
.LVL13:
	b	.L19
.LVL14:
	.p2align 3
.L42:
	.loc 1 195 0
	cmp	w2, 1
	beq	.L22
	.loc 1 197 0
	add	x4, x0, 148
.LVL15:
	.loc 1 198 0
	add	x5, x0, 596
.LVL16:
	.loc 1 195 0
	bhi	.L43
.L28:
.LBB206:
.LBB207:
.LBB208:
	.loc 1 173 0
	cmp	w1, 0
.LBE208:
.LBB209:
	.loc 1 174 0
	mov	w3, 50
.LBE209:
.LBB210:
	.loc 1 173 0
	csel	w1, w1, wzr, ge
.LVL17:
.LBE210:
.LBB211:
	.loc 1 174 0
	mov	x2, 0
.LVL18:
	cmp	w1, w3
	csel	w1, w1, w3, le
	b	.L31
	.p2align 3
.L29:
	add	x2, x2, 1
.LBE211:
	.loc 1 176 0
	cmp	x2, 50
	beq	.L44
.L31:
	.loc 1 177 0
	ldrb	w3, [x4, x2]
	cmp	w1, w3
	bge	.L29
	lsl	x2, x2, 2
.L30:
.LBE207:
.LBE206:
	.loc 1 230 0
	ldr	w1, [x5, x2]
	add	x0, x0, x1
.LVL19:
.L19:
.LBE214:
.LBE216:
.LBB217:
.LBB218:
	.loc 1 237 0
	ldrb	w19, [x0]
.LBE218:
.LBE217:
	.loc 1 363 0
	lsl	w1, w19, 6
.LVL20:
	bl	decode_wf_data
.LVL21:
	str	x0, [x20]
	.loc 1 367 0
	cmp	x0, 0
	mov	w0, -22
	.loc 1 368 0
	csel	w0, w19, w0, ne
	ldp	x19, x20, [sp, 16]
	ldp	x29, x30, [sp], 32
	.cfi_remember_state
	.cfi_restore 30
	.cfi_restore 29
	.cfi_restore 19
	.cfi_restore 20
	.cfi_def_cfa 31, 0
	ret
.LVL22:
	.p2align 3
.L44:
	.cfi_restore_state
.LBB219:
.LBB215:
.LBB213:
.LBB212:
	.loc 1 176 0
	mov	x2, 0
	b	.L30
.LVL23:
.L26:
.LBE212:
.LBE213:
	.loc 1 213 0
	add	x4, x0, 340
.LVL24:
	.loc 1 214 0
	add	x5, x0, 1364
.LVL25:
	b	.L28
.L43:
	.loc 1 205 0
	add	x4, x0, 212
	.loc 1 206 0
	add	x5, x0, 852
	b	.L28
.LVL26:
.L25:
	.loc 1 217 0
	add	x4, x0, 404
.LVL27:
	.loc 1 218 0
	add	x5, x0, 1620
.LVL28:
	b	.L28
.LVL29:
.L22:
	.loc 1 201 0
	add	x4, x0, 468
.LVL30:
	.loc 1 202 0
	add	x5, x0, 1876
.LVL31:
	b	.L28
.LVL32:
.L20:
	.loc 1 209 0
	add	x4, x0, 276
.LVL33:
	.loc 1 210 0
	add	x5, x0, 1108
.LVL34:
	b	.L28
.LBE215:
.LBE219:
	.cfi_endproc
.LFE1569:
	.size	parse_wf_gray16.isra.3, .-parse_wf_gray16.isra.3
	.align	2
	.p2align 3,,7
	.type	parse_wf_data, %function
parse_wf_data:
.LFB1564:
	.loc 1 466 0
	.cfi_startproc
.LVL35:
	stp	x29, x30, [sp, -48]!
	.cfi_def_cfa_offset 48
	.cfi_offset 29, -48
	.cfi_offset 30, -40
	mov	w3, w1
	.loc 1 470 0
	cmp	w3, 3
	.loc 1 466 0
	mov	w1, w2
.LVL36:
	add	x29, sp, 0
	.cfi_def_cfa_register 29
	stp	x19, x20, [sp, 16]
	.cfi_offset 19, -32
	.cfi_offset 20, -24
	mov	x20, x0
	stp	x21, x22, [sp, 32]
	.cfi_offset 21, -16
	.cfi_offset 22, -8
	.loc 1 470 0
	beq	.L50
	bls	.L97
	cmp	w3, 5
	beq	.L52
	bcc	.L53
	cmp	w3, 6
	beq	.L54
	cmp	w3, 7
	bne	.L94
.LBB268:
.LBB269:
.LBB270:
.LBB271:
	.loc 1 188 0
	adrp	x2, .LANCHOR0
.LBB272:
.LBB273:
.LBB274:
	.loc 1 173 0
	cmp	w1, 0
	csel	w1, w1, wzr, ge
.LVL37:
.LBE274:
.LBB275:
	.loc 1 174 0
	mov	w0, 50
.LBE275:
.LBE273:
.LBE272:
	.loc 1 188 0
	ldr	x4, [x2, #:lo12:.LANCHOR0]
.LVL38:
.LBB280:
.LBB277:
.LBB276:
	.loc 1 174 0
	cmp	w1, w0
	csel	w1, w1, w0, le
	mov	x0, 0
.LBE276:
.LBE277:
.LBE280:
	.loc 1 221 0
	add	x3, x4, 532
.LVL39:
	.loc 1 222 0
	add	x5, x4, 2132
.LVL40:
	b	.L72
	.p2align 3
.L70:
	add	x0, x0, 1
.LBB281:
.LBB278:
	.loc 1 176 0
	cmp	x0, 50
	beq	.L95
.L72:
	.loc 1 177 0
	ldrb	w2, [x3, x0]
	cmp	w1, w2
	bge	.L70
.LVL41:
.L96:
	lsl	x0, x0, 2
.L71:
.LBE278:
.LBE281:
	.loc 1 230 0
	ldr	w1, [x5, x0]
.LBE271:
.LBE270:
	.loc 1 440 0
	add	x0, x4, x1
.LBB284:
.LBB285:
	.loc 1 237 0
	ldrb	w19, [x4, x1]
.LBE285:
.LBE284:
	.loc 1 440 0
	lsl	w1, w19, 6
	bl	decode_wf_data
.LVL42:
	str	x0, [x20, 8]
	.loc 1 441 0
	cbz	x0, .L94
.LBE269:
.LBE268:
.LBB288:
.LBB289:
	.loc 1 348 0
	mov	w0, w19
.L99:
.LBE289:
.LBE288:
	.loc 1 530 0
	ldp	x19, x20, [sp, 16]
.LVL43:
	ldp	x21, x22, [sp, 32]
	ldp	x29, x30, [sp], 48
	.cfi_remember_state
	.cfi_restore 20
	.cfi_restore 19
	.cfi_restore 22
	.cfi_restore 21
	.cfi_restore 29
	.cfi_restore 30
	.cfi_def_cfa 31, 0
	ret
.LVL44:
.L97:
	.cfi_restore_state
	.loc 1 470 0
	cmp	w3, 1
	beq	.L49
	bhi	.L50
.LBB316:
.LBB313:
.LBB290:
.LBB291:
	.loc 1 188 0
	adrp	x2, .LANCHOR0
.LBB292:
.LBB293:
.LBB294:
	.loc 1 173 0
	cmp	w1, 0
	csel	w1, w1, wzr, ge
.LVL45:
.LBE294:
.LBB295:
	.loc 1 174 0
	mov	w0, 50
.LBE295:
.LBE293:
.LBE292:
	.loc 1 188 0
	ldr	x4, [x2, #:lo12:.LANCHOR0]
.LVL46:
.LBB300:
.LBB297:
.LBB296:
	.loc 1 174 0
	cmp	w1, w0
	csel	w1, w1, w0, le
	mov	x0, 0
.LBE296:
.LBE297:
.LBE300:
	.loc 1 197 0
	add	x3, x4, 148
.LVL47:
	.loc 1 198 0
	add	x5, x4, 596
.LVL48:
	b	.L58
	.p2align 3
.L56:
	add	x0, x0, 1
.LBB301:
.LBB298:
	.loc 1 176 0
	cmp	x0, 50
	beq	.L98
.L58:
	.loc 1 177 0
	ldrb	w2, [x3, x0]
	cmp	w1, w2
	bge	.L56
	lsl	x0, x0, 2
.L57:
.LBE298:
.LBE301:
	.loc 1 230 0
	ldr	w1, [x5, x0]
.LBE291:
.LBE290:
	.loc 1 334 0
	add	x0, x4, x1
.LBB304:
.LBB305:
	.loc 1 237 0
	ldrb	w19, [x4, x1]
.LBE305:
.LBE304:
	.loc 1 333 0
	add	w21, w19, 15
	lsr	w21, w21, 4
	.loc 1 334 0
	lsl	w1, w21, 2
	bl	decode_wf_data
.LVL49:
	mov	x22, x0
	.loc 1 335 0
	cbz	x0, .L94
.LBB306:
.LBB307:
	.loc 1 265 0
	lsl	w0, w21, 10
.LBB308:
.LBB309:
.LBB310:
	.loc 2 553 0
	mov	w1, 32960
	movk	w1, 0x60, lsl 16
	sxtw	x0, w0
	bl	__kmalloc
.LVL50:
.LBE310:
.LBE309:
.LBE308:
	.loc 1 266 0
	cbz	x0, .L60
	.loc 1 269 0
	cbz	w21, .L61
	mov	x8, 0
.LVL51:
.L65:
	.loc 1 270 0
	ldr	w7, [x22, x8, lsl 2]
.LVL52:
	lsl	w1, w8, 8
	mov	w6, 0
.LVL53:
	.p2align 2
.L64:
.LBB311:
	.loc 1 272 0
	asr	w5, w7, w6
.LVL54:
	and	w5, w5, 3
.LVL55:
	.loc 1 273 0
	mov	w3, w5
	.loc 1 272 0
	mov	w2, 0
	.p2align 2
.L62:
	.loc 1 276 0
	lsl	w4, w5, w2
	add	w2, w2, 2
	orr	w3, w3, w4
	.loc 1 275 0
	cmp	w2, 32
	bne	.L62
	add	w2, w1, 16
	.p2align 2
.L63:
	.loc 1 279 0
	str	w3, [x0, w1, sxtw 2]
	.loc 1 278 0
	add	w1, w1, 1
	cmp	w1, w2
	bne	.L63
	add	w6, w6, 2
.LBE311:
	.loc 1 271 0
	cmp	w6, 32
	bne	.L64
	add	x8, x8, 1
	.loc 1 269 0
	cmp	w21, w8
	bgt	.L65
.L61:
.LBE307:
.LBE306:
	.loc 1 341 0
	str	x0, [x20, 8]
	.loc 1 347 0
	mov	x0, x22
	bl	kfree
.LVL56:
	.loc 1 348 0
	mov	w0, w19
	b	.L99
.LVL57:
.L50:
.LBE313:
.LBE316:
	.loc 1 502 0
	mov	w2, 2
	add	x0, x20, 8
	bl	parse_wf_gray16.isra.3
.LVL58:
	cmp	w0, 0
	csinv	w0, w0, wzr, ge
	.loc 1 530 0
	ldp	x19, x20, [sp, 16]
.LVL59:
	ldp	x21, x22, [sp, 32]
	ldp	x29, x30, [sp], 48
	.cfi_remember_state
	.cfi_restore 30
	.cfi_restore 29
	.cfi_restore 21
	.cfi_restore 22
	.cfi_restore 19
	.cfi_restore 20
	.cfi_def_cfa 31, 0
	ret
.LVL60:
.L54:
	.cfi_restore_state
	.loc 1 496 0
	mov	w2, 5
	add	x0, x0, 8
	bl	parse_wf_gray16.isra.3
.LVL61:
	cmp	w0, 0
	csinv	w0, w0, wzr, ge
	.loc 1 530 0
	ldp	x19, x20, [sp, 16]
.LVL62:
	ldp	x21, x22, [sp, 32]
	ldp	x29, x30, [sp], 48
	.cfi_remember_state
	.cfi_restore 20
	.cfi_restore 19
	.cfi_restore 22
	.cfi_restore 21
	.cfi_restore 29
	.cfi_restore 30
	.cfi_def_cfa 31, 0
	ret
.LVL63:
.L52:
	.cfi_restore_state
	.loc 1 490 0
	mov	w2, 4
	add	x0, x0, 8
	bl	parse_wf_gray16.isra.3
.LVL64:
	cmp	w0, 0
	csinv	w0, w0, wzr, ge
	.loc 1 530 0
	ldp	x19, x20, [sp, 16]
.LVL65:
	ldp	x21, x22, [sp, 32]
	ldp	x29, x30, [sp], 48
	.cfi_remember_state
	.cfi_restore 20
	.cfi_restore 19
	.cfi_restore 22
	.cfi_restore 21
	.cfi_restore 29
	.cfi_restore 30
	.cfi_def_cfa 31, 0
	ret
.LVL66:
.L49:
	.cfi_restore_state
.LBB317:
.LBB318:
.LBB319:
.LBB320:
	.loc 1 188 0
	adrp	x2, .LANCHOR0
.LBB321:
.LBB322:
.LBB323:
	.loc 1 173 0
	cmp	w1, 0
	csel	w1, w1, wzr, ge
.LVL67:
.LBE323:
.LBB324:
	.loc 1 174 0
	mov	w0, 50
.LBE324:
.LBE322:
.LBE321:
	.loc 1 188 0
	ldr	x4, [x2, #:lo12:.LANCHOR0]
.LVL68:
.LBB328:
.LBB326:
.LBB325:
	.loc 1 174 0
	cmp	w1, w0
	csel	w1, w1, w0, le
	mov	x0, 0
.LBE325:
.LBE326:
.LBE328:
	.loc 1 201 0
	add	x3, x4, 468
.LVL69:
	.loc 1 202 0
	add	x5, x4, 1876
.LVL70:
	b	.L68
	.p2align 3
.L100:
	add	x0, x0, 1
.LBB329:
.LBB327:
	.loc 1 176 0
	cmp	x0, 50
	beq	.L95
.L68:
	.loc 1 177 0
	ldrb	w2, [x3, x0]
	cmp	w1, w2
	bge	.L100
	b	.L96
.LVL71:
.L60:
.LBE327:
.LBE329:
.LBE320:
.LBE319:
.LBE318:
.LBE317:
.LBB330:
.LBB314:
	.loc 1 341 0
	str	xzr, [x20, 8]
	.loc 1 343 0
	mov	x0, x22
	bl	kfree
.LVL72:
.L94:
.LBE314:
.LBE330:
	.loc 1 474 0
	mov	w0, -1
	.loc 1 530 0
	ldp	x19, x20, [sp, 16]
.LVL73:
	ldp	x21, x22, [sp, 32]
	ldp	x29, x30, [sp], 48
	.cfi_remember_state
	.cfi_restore 20
	.cfi_restore 19
	.cfi_restore 22
	.cfi_restore 21
	.cfi_restore 29
	.cfi_restore 30
	.cfi_def_cfa 31, 0
	ret
.LVL74:
.L53:
	.cfi_restore_state
	.loc 1 484 0
	mov	w2, 3
	add	x0, x0, 8
	bl	parse_wf_gray16.isra.3
.LVL75:
	cmp	w0, 0
	csinv	w0, w0, wzr, ge
	.loc 1 530 0
	ldp	x19, x20, [sp, 16]
.LVL76:
	ldp	x21, x22, [sp, 32]
	ldp	x29, x30, [sp], 48
	.cfi_remember_state
	.cfi_restore 20
	.cfi_restore 19
	.cfi_restore 22
	.cfi_restore 21
	.cfi_restore 29
	.cfi_restore 30
	.cfi_def_cfa 31, 0
	ret
.LVL77:
.L95:
	.cfi_restore_state
.LBB331:
.LBB287:
.LBB286:
.LBB283:
.LBB282:
.LBB279:
	.loc 1 176 0
	mov	x0, 0
	b	.L71
.LVL78:
.L98:
.LBE279:
.LBE282:
.LBE283:
.LBE286:
.LBE287:
.LBE331:
.LBB332:
.LBB315:
.LBB312:
.LBB303:
.LBB302:
.LBB299:
	mov	x0, 0
	b	.L57
.LBE299:
.LBE302:
.LBE303:
.LBE312:
.LBE315:
.LBE332:
	.cfi_endproc
.LFE1564:
	.size	parse_wf_data, .-parse_wf_data
	.align	2
	.p2align 3,,7
	.global	rkf_wf_input
	.type	rkf_wf_input, %function
rkf_wf_input:
.LFB1552:
	.loc 1 128 0
	.cfi_startproc
.LVL79:
	stp	x29, x30, [sp, -64]!
	.cfi_def_cfa_offset 64
	.cfi_offset 29, -64
	.cfi_offset 30, -56
	add	x29, sp, 0
	.cfi_def_cfa_register 29
	stp	x23, x24, [sp, 48]
	.cfi_offset 23, -16
	.cfi_offset 24, -8
	.loc 1 132 0
	adrp	x23, .LANCHOR0
	.loc 1 128 0
	stp	x19, x20, [sp, 16]
	.cfi_offset 19, -48
	.cfi_offset 20, -40
	.loc 1 133 0
	mov	w19, -16
	.loc 1 132 0
	ldr	x1, [x23, #:lo12:.LANCHOR0]
	.loc 1 128 0
	stp	x21, x22, [sp, 32]
	.cfi_offset 21, -32
	.cfi_offset 22, -24
	.loc 1 132 0
	cbnz	x1, .L101
	mov	x21, x0
.LBB341:
.LBB342:
	.loc 1 93 0
	adrp	x1, .LC0
	mov	x2, 12
	add	x1, x1, :lo12:.LC0
	add	x0, x0, 4
.LVL80:
	bl	strncmp
.LVL81:
	mov	w19, w0
	cbnz	w0, .L121
.LBE342:
.LBE341:
.LBB344:
.LBB345:
	.loc 1 106 0
	ldr	w22, [x21]
	cmp	w22, 262144
	bgt	.L111
	add	x20, x23, :lo12:.LANCHOR0
	.loc 1 109 0
	ldr	w24, [x21, w22, sxtw]
.LBB346:
.LBB347:
	.loc 1 83 0
	add	x20, x20, 8
	mov	x2, 1024
	mov	w1, 0
	mov	x0, x20
	bl	memset
.LVL82:
.LBB348:
.LBB349:
	.loc 1 69 0
	mov	w5, 3511
	.loc 1 74 0
	mov	x7, x20
.LBE349:
.LBE348:
	.loc 1 83 0
	mov	x6, 0
.LBB352:
.LBB350:
	.loc 1 69 0
	movk	w5, 0x4c1, lsl 16
.LVL83:
	.p2align 2
.L107:
	lsl	w1, w6, 22
.LBE350:
.LBE352:
	.loc 1 83 0
	mov	w2, 8
.LBB353:
.LBB351:
	.loc 1 66 0
	mov	w0, 0
	.p2align 2
.L106:
	.loc 1 68 0
	eor	w4, w1, w0
	.loc 1 69 0
	eor	w3, w5, w0, lsl 1
	cmp	w4, 0
	lsl	w0, w0, 1
.LVL84:
	csel	w0, w0, w3, ge
.LVL85:
	.loc 1 72 0
	lsl	w1, w1, 1
	.loc 1 67 0
	subs	w2, w2, #1
	bne	.L106
	.loc 1 74 0
	str	w0, [x6, x7]
	add	x6, x6, 4
	.loc 1 64 0
	cmp	x6, 1024
	bne	.L107
.LBE351:
.LBE353:
	.loc 1 85 0
	cbz	w22, .L108
	.loc 1 86 0
	add	x3, x23, :lo12:.LANCHOR0
	.loc 1 85 0
	mov	x1, 0
.LVL86:
	.loc 1 86 0
	add	x3, x3, 8
	.p2align 2
.L109:
	ldrb	w0, [x21, x1]
.LVL87:
	add	x1, x1, 1
	.loc 1 85 0
	cmp	w22, w1
	.loc 1 86 0
	eor	w0, w0, w2, lsr 24
	ldr	w0, [x3, x0, lsl 2]
	eor	w2, w0, w2, lsl 8
	.loc 1 85 0
	bhi	.L109
.LVL88:
.L108:
.LBE347:
.LBE346:
	.loc 1 112 0
	cmp	w24, w2
	bne	.L122
.LBE345:
.LBE344:
	.loc 1 147 0
	adrp	x0, .LC5
.LVL89:
	add	x1, x21, 20
.LVL90:
	add	x0, x0, :lo12:.LC5
	bl	printk
.LVL91:
	.loc 1 149 0
	str	x21, [x23, #:lo12:.LANCHOR0]
.L101:
	.loc 1 152 0
	mov	w0, w19
	ldp	x19, x20, [sp, 16]
	ldp	x21, x22, [sp, 32]
.LVL92:
	ldp	x23, x24, [sp, 48]
.LVL93:
	ldp	x29, x30, [sp], 64
	.cfi_remember_state
	.cfi_restore 30
	.cfi_restore 29
	.cfi_restore 23
	.cfi_restore 24
	.cfi_restore 21
	.cfi_restore 22
	.cfi_restore 19
	.cfi_restore 20
	.cfi_def_cfa 31, 0
	ret
.LVL94:
.L122:
	.cfi_restore_state
.LBB355:
.LBB354:
	.loc 1 113 0
	adrp	x0, .LC3
.LVL95:
	mov	w1, w24
.LVL96:
	add	x0, x0, :lo12:.LC3
	bl	printk
.LVL97:
.L111:
.LBE354:
.LBE355:
	.loc 1 144 0
	mov	w19, -1
	.loc 1 143 0
	adrp	x0, .LC4
	add	x0, x0, :lo12:.LC4
	bl	printk
.LVL98:
	.loc 1 152 0
	mov	w0, w19
	ldp	x19, x20, [sp, 16]
	ldp	x21, x22, [sp, 32]
.LVL99:
	ldp	x23, x24, [sp, 48]
.LVL100:
	ldp	x29, x30, [sp], 64
	.cfi_remember_state
	.cfi_restore 20
	.cfi_restore 19
	.cfi_restore 22
	.cfi_restore 21
	.cfi_restore 24
	.cfi_restore 23
	.cfi_restore 29
	.cfi_restore 30
	.cfi_def_cfa 31, 0
	ret
.LVL101:
.L121:
	.cfi_restore_state
.LBB356:
.LBB343:
	.loc 1 96 0
	adrp	x0, .LC1
	add	x0, x0, :lo12:.LC1
	bl	printk
.LVL102:
.LBE343:
.LBE356:
	.loc 1 138 0
	mov	w19, -1
	.loc 1 137 0
	adrp	x0, .LC2
	add	x0, x0, :lo12:.LC2
	bl	printk
.LVL103:
	.loc 1 138 0
	b	.L101
	.cfi_endproc
.LFE1552:
	.size	rkf_wf_input, .-rkf_wf_input
	.align	2
	.p2align 3,,7
	.global	rkf_wf_get_version
	.type	rkf_wf_get_version, %function
rkf_wf_get_version:
.LFB1553:
	.loc 1 161 0
	.cfi_startproc
	.loc 1 162 0
	adrp	x0, .LANCHOR0
	ldr	x1, [x0, #:lo12:.LANCHOR0]
	.loc 1 165 0
	add	x0, x1, 84
	cmp	x1, 0
	.loc 1 166 0
	csel	x0, x0, xzr, ne
	ret
	.cfi_endproc
.LFE1553:
	.size	rkf_wf_get_version, .-rkf_wf_get_version
	.align	2
	.p2align 3,,7
	.global	rkf_wf_get_lut
	.type	rkf_wf_get_lut, %function
rkf_wf_get_lut:
.LFB1565:
	.loc 1 543 0
	.cfi_startproc
.LVL104:
	stp	x29, x30, [sp, -64]!
	.cfi_def_cfa_offset 64
	.cfi_offset 29, -64
	.cfi_offset 30, -56
	.loc 1 549 0
	adrp	x3, .LANCHOR0
	.loc 1 543 0
	add	x29, sp, 0
	.cfi_def_cfa_register 29
	stp	x19, x20, [sp, 16]
	.cfi_offset 19, -48
	.cfi_offset 20, -40
	mov	x19, x0
	.loc 1 549 0
	ldr	x0, [x3, #:lo12:.LANCHOR0]
.LVL105:
	.loc 1 543 0
	stp	x21, x22, [sp, 32]
	str	x23, [sp, 48]
	.cfi_offset 21, -32
	.cfi_offset 22, -24
	.cfi_offset 23, -16
	.loc 1 549 0
	cbz	x0, .L138
	.loc 1 552 0
	cbz	x19, .L139
	.loc 1 561 0
	mov	w0, 26215
	mov	w21, w2
	adrp	x22, .LANCHOR1
	mov	w23, w1
	movk	w0, 0x6666, lsl 16
	add	x2, x22, :lo12:.LANCHOR1
.LVL106:
	.loc 1 555 0
	cmp	w1, 8
	beq	.L128
	.loc 1 561 0
	ldr	w1, [x22, #:lo12:.LANCHOR1]
	smull	x20, w21, w0
	asr	x20, x20, 33
	smull	x0, w1, w0
	sub	w20, w20, w21, asr 31
	asr	x0, x0, 33
	sub	w0, w0, w1, asr 31
	cmp	w20, w0
	beq	.L152
	.loc 1 564 0
	cmp	w23, 10
	beq	.L137
.L136:
	.loc 1 566 0
	ldr	x0, [x19, 8]
	cbz	x0, .L131
	.loc 1 567 0
	bl	kfree
.LVL107:
	.loc 1 568 0
	str	xzr, [x19, 8]
.L131:
	.loc 1 571 0
	mov	w2, w21
	mov	w1, w23
	mov	x0, x19
	bl	parse_wf_data
.LVL108:
	mov	w10, w0
	.loc 1 572 0
	tbnz	w0, #31, .L135
	.loc 1 576 0
	ldr	x1, [x19, 16]
	mov	w2, w0
	add	x0, x19, 8
	bl	rkf_lut_init_wf_table.isra.1
.LVL109:
	.loc 1 582 0
	ldr	w1, [x22, #:lo12:.LANCHOR1]
	mov	w0, 26215
	movk	w0, 0x6666, lsl 16
	.loc 1 577 0
	ldr	w2, [x19]
	.loc 1 579 0
	add	x3, x22, :lo12:.LANCHOR1
	.loc 1 577 0
	and	w2, w2, 65280
	.loc 1 582 0
	smull	x0, w1, w0
	.loc 1 578 0
	orr	w2, w2, w10
	.loc 1 579 0
	str	w23, [x3, 4]
	.loc 1 578 0
	str	w2, [x19]
	.loc 1 582 0
	asr	x0, x0, 33
	sub	w0, w0, w1, asr 31
	cmp	w0, w20
	beq	.L133
.L137:
	.loc 1 584 0
	ldr	x0, [x19, 8]
	cbz	x0, .L134
	.loc 1 585 0
	bl	kfree
.LVL110:
	.loc 1 586 0
	str	xzr, [x19, 8]
.L134:
	.loc 1 588 0
	bl	epd_overlay_lut
.LVL111:
	.loc 1 589 0
	mov	w1, w0
	mov	w2, w21
	mov	x0, x19
	bl	parse_wf_data
.LVL112:
	mov	w10, w0
	.loc 1 590 0
	tbnz	w0, #31, .L135
	.loc 1 594 0
	ldr	x1, [x19, 24]
	mov	w2, w0
	add	x0, x19, 8
	bl	rkf_lut_init_wf_table.isra.1
.LVL113:
	.loc 1 598 0
	str	w21, [x22, #:lo12:.LANCHOR1]
	.loc 1 596 0
	ldrb	w1, [x19]
	.loc 1 601 0
	mov	w0, 0
	.loc 1 597 0
	orr	w10, w1, w10, lsl 8
	str	w10, [x19]
.LVL114:
.L126:
	.loc 1 602 0
	ldp	x19, x20, [sp, 16]
.LVL115:
	ldp	x21, x22, [sp, 32]
.LVL116:
	ldr	x23, [sp, 48]
.LVL117:
	ldp	x29, x30, [sp], 64
	.cfi_remember_state
	.cfi_restore 30
	.cfi_restore 29
	.cfi_restore 23
	.cfi_restore 21
	.cfi_restore 22
	.cfi_restore 19
	.cfi_restore 20
	.cfi_def_cfa 31, 0
	ret
.LVL118:
	.p2align 3
.L128:
	.cfi_restore_state
	.loc 1 561 0
	ldr	w1, [x22, #:lo12:.LANCHOR1]
.LVL119:
	smull	x20, w21, w0
	.loc 1 556 0
	mov	w23, 5
	.loc 1 561 0
	asr	x20, x20, 33
	smull	x0, w1, w0
	sub	w20, w20, w21, asr 31
	asr	x0, x0, 33
	sub	w0, w0, w1, asr 31
	cmp	w20, w0
	bne	.L136
	ldr	w0, [x2, 4]
	cmp	w0, w23
.LVL120:
	bne	.L136
.LVL121:
.L133:
	.loc 1 562 0
	mov	w0, 0
.L153:
	.loc 1 602 0
	ldp	x19, x20, [sp, 16]
.LVL122:
	ldp	x21, x22, [sp, 32]
.LVL123:
	ldr	x23, [sp, 48]
.LVL124:
	ldp	x29, x30, [sp], 64
	.cfi_remember_state
	.cfi_restore 20
	.cfi_restore 19
	.cfi_restore 22
	.cfi_restore 21
	.cfi_restore 23
	.cfi_restore 29
	.cfi_restore 30
	.cfi_def_cfa 31, 0
	ret
.LVL125:
	.p2align 3
.L152:
	.cfi_restore_state
	.loc 1 561 0 discriminator 1
	ldr	w0, [x2, 4]
	cmp	w23, w0
	beq	.L133
	.loc 1 564 0
	cmp	w23, 10
	bne	.L136
	.loc 1 562 0
	mov	w0, 0
	b	.L153
.LVL126:
.L138:
	.loc 1 550 0
	mov	w0, -19
	b	.L126
.L139:
	.loc 1 553 0
	mov	w0, -22
	b	.L126
.LVL127:
.L135:
	.loc 1 573 0
	adrp	x0, .LC6
	add	x0, x0, :lo12:.LC6
	bl	printk
.LVL128:
	.loc 1 574 0
	mov	w0, -5
	b	.L126
	.cfi_endproc
.LFE1565:
	.size	rkf_wf_get_lut, .-rkf_wf_get_lut
	.data
	.align	2
	.set	.LANCHOR1,. + 0
	.type	sftemp.16977, %object
	.size	sftemp.16977, 4
sftemp.16977:
	.word	-1
	.type	stype.16976, %object
	.size	stype.16976, 4
stype.16976:
	.word	11
	.bss
	.align	3
	.set	.LANCHOR0,. + 0
	.type	global_waveform, %object
	.size	global_waveform, 8
global_waveform:
	.zero	8
	.type	crc32_table, %object
	.size	crc32_table, 1024
crc32_table:
	.zero	1024
	.section	.rodata.str1.8,"aMS",@progbits,1
	.align	3
.LC0:
	.string	"rkf waveform"
	.zero	3
.LC1:
	.string	"rkf: check format failed\n"
	.zero	6
.LC2:
	.string	"rkf: failed to check RKF file format\n"
	.zero	2
.LC3:
	.string	"[EINK]: waveform crc err readcrc = %x crccheck = %x\n"
	.zero	3
.LC4:
	.string	"rkf: failed to check crc RKF waveform\n"
	.zero	1
.LC5:
	.string	"rkf file version: %s\n"
	.zero	2
.LC6:
	.string	"rkf waveform get frame number failed\n"
	.text
.Letext0:
	.file 3 "./include/uapi/asm-generic/int-ll64.h"
	.file 4 "./include/asm-generic/int-ll64.h"
	.file 5 "./include/uapi/asm-generic/posix_types.h"
	.file 6 "./include/uapi/linux/types.h"
	.file 7 "./include/linux/types.h"
	.file 8 "./include/linux/ioport.h"
	.file 9 "./arch/arm64/include/asm/insn.h"
	.file 10 "./include/linux/init.h"
	.file 11 "./arch/arm64/include/asm/alternative.h"
	.file 12 "./include/asm-generic/atomic-long.h"
	.file 13 "./arch/arm64/include/asm/cache.h"
	.file 14 "./include/linux/printk.h"
	.file 15 "./include/linux/kernel.h"
	.file 16 "./include/linux/notifier.h"
	.file 17 "./include/asm-generic/qspinlock_types.h"
	.file 18 "./include/linux/lockdep.h"
	.file 19 "./include/linux/spinlock_types.h"
	.file 20 "./arch/arm64/include/asm/hwcap.h"
	.file 21 "./include/linux/jump_label.h"
	.file 22 "./arch/arm64/include/asm/jump_label.h"
	.file 23 "./arch/arm64/include/asm/cpufeature.h"
	.file 24 "./arch/arm64/include/uapi/asm/ptrace.h"
	.file 25 "./include/asm-generic/sections.h"
	.file 26 "./arch/arm64/include/asm/sections.h"
	.file 27 "./arch/arm64/include/asm/virt.h"
	.file 28 "./arch/arm64/include/asm/memory.h"
	.file 29 "./arch/arm64/include/asm/processor.h"
	.file 30 "./arch/arm64/include/asm/fpsimd.h"
	.file 31 "./include/linux/osq_lock.h"
	.file 32 "./include/linux/debug_locks.h"
	.file 33 "./include/linux/mutex.h"
	.file 34 "./include/linux/sched.h"
	.file 35 "./include/uapi/linux/time.h"
	.file 36 "./include/linux/restart_block.h"
	.file 37 "./include/linux/compat_time.h"
	.file 38 "./arch/arm64/include/asm/stack_pointer.h"
	.file 39 "./arch/arm64/include/asm/thread_info.h"
	.file 40 "./include/linux/cpumask.h"
	.file 41 "./include/linux/rcupdate.h"
	.file 42 "./include/linux/radix-tree.h"
	.file 43 "./include/linux/sched/debug.h"
	.file 44 "./include/linux/wait.h"
	.file 45 "./include/linux/seqlock.h"
	.file 46 "./include/linux/nodemask.h"
	.file 47 "./include/linux/mmzone.h"
	.file 48 "./include/uapi/linux/personality.h"
	.file 49 "./include/linux/rwsem.h"
	.file 50 "./include/linux/time.h"
	.file 51 "./include/linux/llist.h"
	.file 52 "./include/linux/smp.h"
	.file 53 "./include/asm-generic/percpu.h"
	.file 54 "./arch/arm64/include/asm/smp.h"
	.file 55 "./include/clocksource/arm_arch_timer.h"
	.file 56 "./arch/arm64/include/asm/arch_timer.h"
	.file 57 "./include/linux/timex.h"
	.file 58 "./include/linux/jiffies.h"
	.file 59 "./include/linux/ktime.h"
	.file 60 "./include/linux/timekeeping.h"
	.file 61 "./include/linux/timer.h"
	.file 62 "./include/linux/workqueue.h"
	.file 63 "./include/linux/completion.h"
	.file 64 "./include/linux/percpu.h"
	.file 65 "./arch/arm64/include/asm/topology.h"
	.file 66 "./include/linux/arch_topology.h"
	.file 67 "./include/linux/gfp.h"
	.file 68 "./include/linux/idr.h"
	.file 69 "./include/linux/rbtree.h"
	.file 70 "./include/linux/highuid.h"
	.file 71 "./include/linux/uidgid.h"
	.file 72 "./include/linux/kernfs.h"
	.file 73 "./include/linux/kobject_ns.h"
	.file 74 "./include/linux/pid.h"
	.file 75 "./include/linux/refcount.h"
	.file 76 "./include/linux/plist.h"
	.file 77 "./include/linux/timerqueue.h"
	.file 78 "./include/linux/hrtimer.h"
	.file 79 "./include/linux/seccomp.h"
	.file 80 "./include/uapi/asm-generic/signal.h"
	.file 81 "./include/uapi/asm-generic/siginfo.h"
	.file 82 "./include/linux/signal_types.h"
	.file 83 "./include/linux/mm_types_task.h"
	.file 84 "./include/linux/task_io_accounting.h"
	.file 85 "./include/uapi/linux/rseq.h"
	.file 86 "./include/linux/sysfs.h"
	.file 87 "./include/linux/kobject.h"
	.file 88 "./include/linux/kref.h"
	.file 89 "./include/linux/klist.h"
	.file 90 "./include/linux/pm.h"
	.file 91 "./include/linux/device.h"
	.file 92 "./include/linux/pm_wakeup.h"
	.file 93 "./include/linux/ratelimit.h"
	.file 94 "./arch/arm64/include/asm/device.h"
	.file 95 "drivers/gpu/drm/rockchip/ebc-dev/epdlut/epd_lut.h"
	.file 96 "./include/asm-generic/getorder.h"
	.file 97 "./include/linux/log2.h"
	.file 98 "./include/asm-generic/bitops/fls64.h"
	.file 99 "./include/asm-generic/bitops/builtin-__fls.h"
	.file 100 "./arch/arm64/include/asm/string.h"
	.section	.note.GNU-stack,"",@progbits
