// SPDX-License-Identifier: GPL-2.0
/*
 * Copyright (c) 2020 Rockchip Electronics Co. Ltd.
 *
 * Author: Zorro Liu <zorro.liu@rock-chips.com>
 */

	.arch armv8-a
	.file	"ebc_dev.c"
	.text
.Ltext0:
	.cfi_sections	.debug_frame
#APP
	.section	".initcall6s.init", "a"	
__initcall_ebc_init6s:			
.long	ebc_init - .			
.previous					

#NO_APP
	.align	2
	.p2align 3,,7
	.type	get_auto_image, %function
get_auto_image:
.LFB2814:
	.file 1 "drivers/gpu/drm/rockchip/ebc-dev/ebc_dev.c"
	.loc 1 458 0
	.cfi_startproc
.LVL0:
	.loc 1 459 0
	adrp	x5, .LANCHOR0
	.loc 1 467 0
	ldrb	w11, [x4, 48]
.LVL1:
	.loc 1 459 0
	ldr	x16, [x5, #:lo12:.LANCHOR0]
	.loc 1 471 0
	add	x16, x16, 24
	ldr	w18, [x16, 156]
	.loc 1 477 0
	ldp	w12, w17, [x16, 84]
	.loc 1 479 0
	str	wzr, [x4, 52]
.LVL2:
	.loc 1 485 0
	cmp	w17, 0
	ble	.L54
	lsr	w12, w12, 3
.LVL3:
	.loc 1 458 0
	stp	x29, x30, [sp, -64]!
	.cfi_def_cfa_offset 64
	.cfi_offset 29, -64
	.cfi_offset 30, -56
	sub	w15, w12, #1
	.loc 1 485 0
	mov	w14, 0
.LVL4:
	add	x15, x15, 1
	.loc 1 458 0
	add	x29, sp, 0
	.cfi_def_cfa_register 29
	lsl	x30, x15, 3
	lsl	x15, x15, 2
	stp	x19, x20, [sp, 16]
	stp	x21, x22, [sp, 32]
	.loc 1 497 0
	mov	w13, 1
	.loc 1 458 0
	stp	x23, x24, [sp, 48]
	.cfi_offset 19, -48
	.cfi_offset 20, -40
	.cfi_offset 21, -32
	.cfi_offset 22, -24
	.cfi_offset 23, -16
	.cfi_offset 24, -8
.LVL5:
	.p2align 2
.L26:
	.loc 1 486 0
	cbz	w18, .L3
	.loc 1 487 0
	ldp	w5, w10, [x16, 84]
.LVL6:
	sub	w10, w10, #1
	sub	w10, w10, w14
	mul	w10, w10, w5
	lsr	w10, w10, 2
	add	x10, x0, x10
.LVL7:
.L6:
	add	x10, x10, 2
.LVL8:
	add	x6, x3, 8
	.loc 1 491 0 discriminator 1
	mov	x9, 0
	cbz	w12, .L5
	.p2align 2
.L42:
	.loc 1 494 0
	ldr	w7, [x1, x9, lsl 2]
.LVL9:
	.loc 1 495 0
	ldr	w5, [x2, x9, lsl 2]
.LVL10:
	.loc 1 496 0
	cmp	w7, w5
	beq	.L7
	.loc 1 498 0
	eor	w8, w7, w5
	.loc 1 497 0
	str	w13, [x4, 52]
	.loc 1 493 0
	mov	w19, 0
	.loc 1 499 0
	tst	x8, 15
	beq	.L8
	.loc 1 500 0
	ldrb	w21, [x6, -8]
	.loc 1 502 0
	ubfiz	w19, w5, 8, 8
	ldr	x22, [x4, 128]
	add	w19, w19, w7, uxtb
	.loc 1 504 0
	add	w20, w21, 1
	.loc 1 502 0
	add	x19, x22, x19
	.loc 1 501 0
	lsl	w21, w21, 16
	.loc 1 504 0
	and	w20, w20, 255
	.loc 1 505 0
	cmp	w11, w20
	.loc 1 502 0
	ldrb	w19, [x19, w21, sxtw]
	and	w19, w19, 3
	.loc 1 505 0
	beq	.L58
.L9:
	.loc 1 509 0
	strb	w20, [x6, -8]
.L8:
	.loc 1 512 0
	tst	w8, 240
	beq	.L10
	.loc 1 515 0
	lsr	w20, w5, 4
	.loc 1 513 0
	ldrb	w21, [x6, -7]
	.loc 1 515 0
	ubfx	x22, x7, 4, 8
	ubfiz	w20, w20, 8, 8
	add	w20, w20, w22
	ldr	x22, [x4, 128]
	.loc 1 514 0
	lsl	w23, w21, 16
	.loc 1 517 0
	add	w21, w21, 1
	.loc 1 515 0
	add	x20, x22, x20
	.loc 1 517 0
	and	w21, w21, 255
	.loc 1 518 0
	cmp	w11, w21
	.loc 1 515 0
	ldrb	w20, [x20, w23, sxtw]
	.loc 1 516 0
	ubfiz	w20, w20, 2, 2
	orr	w19, w20, w19
	.loc 1 518 0
	beq	.L59
.L11:
	.loc 1 522 0
	strb	w21, [x6, -7]
.L10:
	.loc 1 525 0
	tst	w8, 3840
	beq	.L12
	.loc 1 526 0
	ldrb	w22, [x6, -6]
	.loc 1 528 0
	and	w21, w5, 65280
	ldr	x23, [x4, 128]
	ubfx	x20, x7, 8, 8
	orr	w20, w20, w21
	.loc 1 530 0
	add	w21, w22, 1
	.loc 1 527 0
	lsl	w22, w22, 16
	.loc 1 530 0
	and	w21, w21, 255
	.loc 1 528 0
	add	x20, x23, x20, uxth
	.loc 1 531 0
	cmp	w11, w21
	.loc 1 528 0
	ldrb	w20, [x20, w22, sxtw]
	.loc 1 529 0
	ubfiz	w20, w20, 4, 2
	orr	w19, w20, w19
	.loc 1 531 0
	beq	.L60
.L13:
	.loc 1 535 0
	strb	w21, [x6, -6]
.L12:
	.loc 1 538 0
	tst	w8, 61440
	beq	.L14
	.loc 1 541 0
	lsr	w20, w5, 12
	.loc 1 539 0
	ldrb	w21, [x6, -5]
	.loc 1 541 0
	ubfx	x22, x7, 12, 8
	ubfiz	w20, w20, 8, 8
	add	w20, w20, w22
	ldr	x22, [x4, 128]
	.loc 1 540 0
	lsl	w23, w21, 16
	.loc 1 543 0
	add	w21, w21, 1
	.loc 1 541 0
	add	x20, x22, x20
	.loc 1 543 0
	and	w21, w21, 255
	.loc 1 544 0
	cmp	w11, w21
	.loc 1 541 0
	ldrb	w20, [x20, w23, sxtw]
	.loc 1 542 0
	ubfiz	w20, w20, 6, 2
	orr	w19, w20, w19
	.loc 1 544 0
	beq	.L61
.L15:
	.loc 1 548 0
	strb	w21, [x6, -5]
.L14:
	.loc 1 551 0
	strb	w19, [x10, -2]
	.loc 1 554 0
	tst	w8, 983040
	.loc 1 553 0
	mov	w19, 0
	.loc 1 554 0
	beq	.L16
	.loc 1 557 0
	lsr	w19, w5, 16
	.loc 1 555 0
	ldrb	w20, [x6, -4]
	.loc 1 557 0
	ubfx	x21, x7, 16, 8
	ubfiz	w19, w19, 8, 8
	add	w19, w19, w21
	ldr	x21, [x4, 128]
	.loc 1 556 0
	lsl	w22, w20, 16
	.loc 1 559 0
	add	w20, w20, 1
	.loc 1 557 0
	add	x19, x21, x19
	.loc 1 559 0
	and	w20, w20, 255
	.loc 1 560 0
	cmp	w11, w20
	.loc 1 557 0
	ldrb	w19, [x19, w22, sxtw]
	and	w19, w19, 3
	.loc 1 560 0
	beq	.L62
.L17:
	.loc 1 564 0
	strb	w20, [x6, -4]
.L16:
	.loc 1 567 0
	tst	w8, 15728640
	beq	.L18
	.loc 1 570 0
	lsr	w20, w5, 20
	.loc 1 568 0
	ldrb	w21, [x6, -3]
	.loc 1 570 0
	ubfx	x22, x7, 20, 8
	ubfiz	w20, w20, 8, 8
	add	w20, w20, w22
	ldr	x22, [x4, 128]
	.loc 1 569 0
	lsl	w23, w21, 16
	.loc 1 572 0
	add	w21, w21, 1
	.loc 1 570 0
	add	x20, x22, x20
	.loc 1 572 0
	and	w21, w21, 255
	.loc 1 573 0
	cmp	w11, w21
	.loc 1 570 0
	ldrb	w20, [x20, w23, sxtw]
	.loc 1 571 0
	ubfiz	w20, w20, 2, 2
	orr	w19, w20, w19
	.loc 1 573 0
	beq	.L63
.L19:
	.loc 1 577 0
	strb	w21, [x6, -3]
.L18:
	.loc 1 580 0
	tst	w8, 251658240
	beq	.L20
	.loc 1 581 0
	ldrb	w22, [x6, -2]
	.loc 1 583 0
	lsr	w20, w5, 24
	mov	w21, w20
	lsr	w24, w7, 24
	ldr	x23, [x4, 128]
	add	w20, w24, w21, lsl 8
	.loc 1 585 0
	add	w21, w22, 1
	.loc 1 582 0
	lsl	w22, w22, 16
	.loc 1 583 0
	add	x20, x23, x20
	.loc 1 585 0
	and	w21, w21, 255
	.loc 1 586 0
	cmp	w11, w21
	.loc 1 583 0
	ldrb	w20, [x20, w22, sxtw]
	.loc 1 584 0
	ubfiz	w20, w20, 4, 2
	orr	w19, w20, w19
	.loc 1 586 0
	beq	.L64
.L21:
	.loc 1 590 0
	strb	w21, [x6, -2]
.L20:
	.loc 1 593 0
	tst	w8, -268435456
	beq	.L22
	.loc 1 594 0
	ldrb	w21, [x6, -1]
	.loc 1 596 0
	lsr	w8, w5, 28
.LVL11:
	mov	w20, w8
	lsr	w23, w7, 28
	ldr	x22, [x4, 128]
	add	w8, w23, w20, lsl 8
	.loc 1 598 0
	add	w20, w21, 1
	.loc 1 595 0
	lsl	w21, w21, 16
	.loc 1 596 0
	add	x8, x22, x8
	.loc 1 598 0
	and	w20, w20, 255
	.loc 1 599 0
	cmp	w11, w20
	.loc 1 596 0
	ldrb	w8, [x8, w21, sxtw]
	.loc 1 597 0
	ubfiz	w8, w8, 6, 2
	orr	w19, w8, w19
	.loc 1 599 0
	beq	.L65
.L23:
	.loc 1 603 0
	strb	w20, [x6, -1]
.LVL12:
.L22:
	.loc 1 606 0
	str	w5, [x2, x9, lsl 2]
	.loc 1 607 0
	strb	w19, [x10, -1]
.L24:
	add	x9, x9, 1
	add	x10, x10, 2
	add	x6, x6, 8
	.loc 1 491 0 discriminator 2
	cmp	w12, w9
	bgt	.L42
	add	x3, x3, x30
	add	x2, x2, x15
	add	x1, x1, x15
.L5:
	.loc 1 485 0 discriminator 2
	add	w14, w14, 1
	cmp	w17, w14
	bne	.L26
	.loc 1 619 0
	ldp	x19, x20, [sp, 16]
	ldp	x21, x22, [sp, 32]
	ldp	x23, x24, [sp, 48]
	ldp	x29, x30, [sp], 64
	.cfi_remember_state
	.cfi_restore 30
	.cfi_restore 29
	.cfi_restore 23
	.cfi_restore 24
	.cfi_restore 21
	.cfi_restore 22
	.cfi_restore 19
	.cfi_restore 20
	.cfi_def_cfa 31, 0
	ret
.LVL13:
	.p2align 3
.L65:
	.cfi_restore_state
	.loc 1 601 0
	and	w5, w5, 268435455
.LVL14:
	and	w7, w7, -268435456
.LVL15:
	orr	w5, w7, w5
.LVL16:
	.loc 1 600 0
	mov	w20, 0
	b	.L23
.LVL17:
	.p2align 3
.L64:
	.loc 1 588 0
	and	w5, w5, -251658241
.LVL18:
	and	w20, w7, 251658240
	orr	w5, w20, w5
.LVL19:
	.loc 1 587 0
	mov	w21, 0
	b	.L21
	.p2align 3
.L62:
	.loc 1 562 0
	and	w20, w7, 983040
	and	w5, w5, -983041
.LVL20:
	orr	w5, w20, w5
.LVL21:
	.loc 1 561 0
	mov	w20, 0
	b	.L17
	.p2align 3
.L63:
	.loc 1 575 0
	and	w5, w5, -15728641
.LVL22:
	and	w20, w7, 15728640
	orr	w5, w20, w5
.LVL23:
	.loc 1 574 0
	mov	w21, 0
	b	.L19
	.p2align 3
.L61:
	.loc 1 546 0
	and	w5, w5, -61441
.LVL24:
	and	w20, w7, 61440
	orr	w5, w20, w5
.LVL25:
	.loc 1 545 0
	mov	w21, 0
	b	.L15
	.p2align 3
.L59:
	.loc 1 520 0
	and	w5, w5, -241
.LVL26:
	and	w20, w7, 240
	orr	w5, w20, w5
.LVL27:
	.loc 1 519 0
	mov	w21, 0
	b	.L11
	.p2align 3
.L60:
	.loc 1 533 0
	and	w5, w5, -3841
.LVL28:
	and	w20, w7, 3840
	orr	w5, w20, w5
.LVL29:
	.loc 1 532 0
	mov	w21, 0
	b	.L13
	.p2align 3
.L58:
	.loc 1 507 0
	bfi	w5, w7, 0, 4
	.loc 1 506 0
	mov	w20, 0
	b	.L9
	.p2align 3
.L7:
	.loc 1 610 0
	strb	wzr, [x10, -2]
	.loc 1 611 0
	strb	wzr, [x10, -1]
	b	.L24
	.p2align 3
.L3:
	.loc 1 489 0
	ldr	w10, [x16, 84]
	mul	w10, w14, w10
	lsr	w10, w10, 2
	add	x10, x0, x10
.LVL30:
	b	.L6
.LVL31:
.L54:
	.cfi_def_cfa 31, 0
	.cfi_restore 19
	.cfi_restore 20
	.cfi_restore 21
	.cfi_restore 22
	.cfi_restore 23
	.cfi_restore 24
	.cfi_restore 29
	.cfi_restore 30
	ret
	.cfi_endproc
.LFE2814:
	.size	get_auto_image, .-get_auto_image
	.align	2
	.p2align 3,,7
	.type	get_overlay_image, %function
get_overlay_image:
.LFB2815:
	.loc 1 623 0
	.cfi_startproc
.LVL32:
	stp	x29, x30, [sp, -96]!
	.cfi_def_cfa_offset 96
	.cfi_offset 29, -96
	.cfi_offset 30, -88
	.loc 1 624 0
	adrp	x5, .LANCHOR0
	.loc 1 623 0
	add	x29, sp, 0
	.cfi_def_cfa_register 29
	.loc 1 624 0
	ldr	x17, [x5, #:lo12:.LANCHOR0]
	.loc 1 623 0
	stp	x19, x20, [sp, 16]
	.loc 1 636 0
	add	x17, x17, 24
	.loc 1 623 0
	stp	x21, x22, [sp, 32]
	stp	x23, x24, [sp, 48]
	stp	x25, x26, [sp, 64]
	str	x27, [sp, 80]
	.cfi_offset 19, -80
	.cfi_offset 20, -72
	.cfi_offset 21, -64
	.cfi_offset 22, -56
	.cfi_offset 23, -48
	.cfi_offset 24, -40
	.cfi_offset 25, -32
	.cfi_offset 26, -24
	.cfi_offset 27, -16
	.loc 1 642 0
	ldp	w11, w18, [x17, 84]
	.loc 1 636 0
	ldr	w30, [x17, 156]
	.loc 1 644 0
	str	wzr, [x4, 52]
.LVL33:
	.loc 1 650 0
	cmp	w18, 0
	ble	.L66
	lsr	w11, w11, 3
.LVL34:
	mov	w13, 0
.LVL35:
	sub	w16, w11, #1
	.loc 1 662 0
	mov	w12, 1
	add	x16, x16, 1
	.loc 1 800 0
	mov	w15, -268435456
	lsl	x19, x16, 3
	lsl	x16, x16, 2
	.loc 1 782 0
	mov	w14, 251658240
.LVL36:
	.p2align 2
.L99:
	.loc 1 651 0
	cbz	w30, .L68
	.loc 1 652 0
	ldp	w5, w10, [x17, 84]
.LVL37:
	sub	w10, w10, #1
	sub	w10, w10, w13
	mul	w10, w10, w5
	lsr	w10, w10, 2
	add	x10, x0, x10
.LVL38:
.L71:
	add	x10, x10, 2
.LVL39:
	add	x7, x3, 8
	.loc 1 656 0 discriminator 1
	mov	x9, 0
	cbz	w11, .L70
	.p2align 2
.L131:
	.loc 1 659 0
	ldr	w5, [x1, x9, lsl 2]
.LVL40:
	.loc 1 660 0
	ldr	w6, [x2, x9, lsl 2]
.LVL41:
	.loc 1 661 0
	cmp	w5, w6
	beq	.L72
	.loc 1 663 0
	eor	w8, w5, w6
	.loc 1 662 0
	str	w12, [x4, 52]
	.loc 1 658 0
	mov	w20, 0
	.loc 1 664 0
	tst	x8, 15
	beq	.L73
	.loc 1 666 0
	ldrb	w21, [x7, -8]
	.loc 1 668 0
	ubfiz	w20, w6, 8, 8
	ldr	x23, [x4, 128]
	add	w20, w20, w5, uxtb
	.loc 1 674 0
	ldrb	w22, [x4, 48]
	.loc 1 667 0
	lsl	w25, w21, 16
	.loc 1 668 0
	add	x20, x23, x20
	.loc 1 672 0
	ldrb	w24, [x4, 49]
	.loc 1 671 0
	ands	w23, w5, 15
	.loc 1 672 0
	ccmp	w23, 15, 4, ne
	.loc 1 670 0
	add	w21, w21, 1
	.loc 1 668 0
	ldrb	w20, [x20, w25, sxtw]
	.loc 1 670 0
	and	w21, w21, 255
	.loc 1 672 0
	csel	w22, w22, w24, ne
	.loc 1 668 0
	and	w20, w20, 3
	.loc 1 675 0
	cmp	w22, w21
	beq	.L143
.L75:
	.loc 1 679 0
	strb	w21, [x7, -8]
.L73:
	.loc 1 682 0
	tst	w8, 240
	beq	.L76
	.loc 1 684 0
	ldrb	w22, [x7, -7]
	.loc 1 686 0
	lsr	w21, w6, 4
	ubfx	x23, x5, 4, 8
	ubfiz	w21, w21, 8, 8
	ldr	x24, [x4, 128]
	add	w21, w21, w23
	.loc 1 685 0
	lsl	w27, w22, 16
	.loc 1 683 0
	and	w25, w5, 240
	.loc 1 686 0
	add	x24, x24, x21
	.loc 1 688 0
	add	w21, w22, 1
	.loc 1 692 0
	ldrb	w23, [x4, 48]
	.loc 1 689 0
	cmp	w25, 240
	.loc 1 690 0
	ldrb	w26, [x4, 49]
	ccmp	w25, 0, 4, ne
	.loc 1 686 0
	ldrb	w22, [x24, w27, sxtw]
	.loc 1 688 0
	and	w21, w21, 255
	.loc 1 690 0
	csel	w23, w23, w26, ne
	.loc 1 693 0
	cmp	w23, w21
	.loc 1 687 0
	ubfiz	w22, w22, 2, 2
	orr	w20, w22, w20
	.loc 1 693 0
	beq	.L144
.L78:
	.loc 1 697 0
	strb	w21, [x7, -7]
.L76:
	.loc 1 700 0
	tst	w8, 3840
	beq	.L79
	.loc 1 702 0
	ldrb	w21, [x7, -6]
	.loc 1 704 0
	and	w23, w6, 65280
	ldr	x24, [x4, 128]
	ubfx	x22, x5, 8, 8
	orr	w22, w22, w23
	.loc 1 701 0
	and	w23, w5, 3840
	.loc 1 703 0
	lsl	w26, w21, 16
	.loc 1 708 0
	ldrb	w25, [x4, 49]
	.loc 1 704 0
	add	x22, x24, x22, uxth
	.loc 1 707 0
	cmp	w23, 3840
	.loc 1 710 0
	ldrb	w24, [x4, 48]
	.loc 1 708 0
	ccmp	w23, 0, 4, ne
	.loc 1 706 0
	add	w21, w21, 1
	.loc 1 704 0
	ldrb	w22, [x22, w26, sxtw]
	.loc 1 706 0
	and	w21, w21, 255
	.loc 1 708 0
	csel	w24, w24, w25, ne
	.loc 1 711 0
	cmp	w24, w21
	.loc 1 705 0
	ubfiz	w22, w22, 4, 2
	orr	w20, w22, w20
	.loc 1 711 0
	beq	.L145
.L81:
	.loc 1 715 0
	strb	w21, [x7, -6]
.L79:
	.loc 1 718 0
	tst	w8, 61440
	beq	.L82
	.loc 1 720 0
	ldrb	w22, [x7, -5]
	.loc 1 722 0
	lsr	w21, w6, 12
	ubfx	x23, x5, 12, 8
	ubfiz	w21, w21, 8, 8
	ldr	x24, [x4, 128]
	add	w21, w21, w23
	.loc 1 721 0
	lsl	w27, w22, 16
	.loc 1 719 0
	and	w25, w5, 61440
	.loc 1 722 0
	add	x24, x24, x21
	.loc 1 724 0
	add	w21, w22, 1
	.loc 1 728 0
	ldrb	w23, [x4, 48]
	.loc 1 725 0
	cmp	w25, 61440
	.loc 1 726 0
	ldrb	w26, [x4, 49]
	ccmp	w25, 0, 4, ne
	.loc 1 722 0
	ldrb	w22, [x24, w27, sxtw]
	.loc 1 724 0
	and	w21, w21, 255
	.loc 1 726 0
	csel	w23, w23, w26, ne
	.loc 1 729 0
	cmp	w23, w21
	.loc 1 723 0
	ubfiz	w22, w22, 6, 2
	orr	w20, w22, w20
	.loc 1 729 0
	beq	.L146
.L84:
	.loc 1 733 0
	strb	w21, [x7, -5]
.L82:
	.loc 1 736 0
	strb	w20, [x10, -2]
	.loc 1 739 0
	tst	w8, 983040
	.loc 1 738 0
	mov	w20, 0
	.loc 1 739 0
	beq	.L85
	.loc 1 743 0
	lsr	w20, w6, 16
	.loc 1 741 0
	ldrb	w21, [x7, -4]
	.loc 1 743 0
	ubfx	x22, x5, 16, 8
	ubfiz	w20, w20, 8, 8
	add	w20, w20, w22
	ldr	x22, [x4, 128]
	.loc 1 742 0
	lsl	w25, w21, 16
	.loc 1 740 0
	and	w23, w5, 983040
	.loc 1 743 0
	add	x20, x22, x20
	.loc 1 747 0
	ldrb	w24, [x4, 49]
	.loc 1 746 0
	cmp	w23, 983040
	.loc 1 749 0
	ldrb	w22, [x4, 48]
	.loc 1 747 0
	ccmp	w23, 0, 4, ne
	.loc 1 745 0
	add	w21, w21, 1
	.loc 1 743 0
	ldrb	w20, [x20, w25, sxtw]
	.loc 1 745 0
	and	w21, w21, 255
	.loc 1 747 0
	csel	w22, w22, w24, ne
	.loc 1 743 0
	and	w20, w20, 3
	.loc 1 750 0
	cmp	w22, w21
	beq	.L147
.L87:
	.loc 1 754 0
	strb	w21, [x7, -4]
.L85:
	.loc 1 757 0
	tst	w8, 15728640
	beq	.L88
	.loc 1 759 0
	ldrb	w22, [x7, -3]
	.loc 1 761 0
	lsr	w21, w6, 20
	ubfx	x23, x5, 20, 8
	ubfiz	w21, w21, 8, 8
	ldr	x24, [x4, 128]
	add	w21, w21, w23
	.loc 1 760 0
	lsl	w27, w22, 16
	.loc 1 758 0
	and	w25, w5, 15728640
	.loc 1 761 0
	add	x24, x24, x21
	.loc 1 763 0
	add	w21, w22, 1
	.loc 1 767 0
	ldrb	w23, [x4, 48]
	.loc 1 764 0
	cmp	w25, 15728640
	.loc 1 765 0
	ldrb	w26, [x4, 49]
	ccmp	w25, 0, 4, ne
	.loc 1 761 0
	ldrb	w22, [x24, w27, sxtw]
	.loc 1 763 0
	and	w21, w21, 255
	.loc 1 765 0
	csel	w23, w23, w26, ne
	.loc 1 768 0
	cmp	w23, w21
	.loc 1 762 0
	ubfiz	w22, w22, 2, 2
	orr	w20, w22, w20
	.loc 1 768 0
	beq	.L148
.L90:
	.loc 1 772 0
	strb	w21, [x7, -3]
.L88:
	.loc 1 775 0
	tst	w8, 251658240
	beq	.L91
	.loc 1 777 0
	ldrb	w21, [x7, -2]
	.loc 1 779 0
	lsr	w22, w6, 24
	lsr	w25, w5, 24
	mov	w23, w22
	ldr	x24, [x4, 128]
	add	w22, w25, w23, lsl 8
	.loc 1 778 0
	lsl	w26, w21, 16
	.loc 1 785 0
	ldrb	w23, [x4, 48]
	.loc 1 779 0
	add	x22, x24, x22
	.loc 1 783 0
	ldrb	w25, [x4, 49]
	.loc 1 782 0
	ands	w24, w5, 251658240
	.loc 1 781 0
	add	w21, w21, 1
	.loc 1 783 0
	ccmp	w24, w14, 4, ne
	.loc 1 781 0
	and	w21, w21, 255
	.loc 1 779 0
	ldrb	w22, [x22, w26, sxtw]
	.loc 1 783 0
	csel	w23, w23, w25, ne
	.loc 1 786 0
	cmp	w23, w21
	.loc 1 780 0
	ubfiz	w22, w22, 4, 2
	orr	w20, w22, w20
	.loc 1 786 0
	beq	.L149
.L93:
	.loc 1 790 0
	strb	w21, [x7, -2]
.L91:
	.loc 1 793 0
	tst	w8, -268435456
	beq	.L94
	.loc 1 795 0
	ldrb	w8, [x7, -1]
.LVL42:
	.loc 1 797 0
	lsr	w22, w5, 28
	ldr	x23, [x4, 128]
	lsr	w21, w6, 28
	add	w21, w22, w21, lsl 8
	.loc 1 800 0
	ands	w5, w5, -268435456
.LVL43:
	.loc 1 796 0
	lsl	w24, w8, 16
	.loc 1 797 0
	add	x21, x23, x21
	.loc 1 803 0
	ldrb	w22, [x4, 48]
	.loc 1 801 0
	ccmp	w5, w15, 4, ne
	ldrb	w23, [x4, 49]
	.loc 1 799 0
	add	w8, w8, 1
	.loc 1 797 0
	ldrb	w21, [x21, w24, sxtw]
	.loc 1 799 0
	and	w8, w8, 255
	.loc 1 801 0
	csel	w22, w22, w23, ne
	.loc 1 804 0
	cmp	w22, w8
	.loc 1 798 0
	ubfiz	w21, w21, 6, 2
	orr	w20, w21, w20
	.loc 1 804 0
	beq	.L150
.L96:
	.loc 1 808 0
	strb	w8, [x7, -1]
.LVL44:
.L94:
	.loc 1 811 0
	str	w6, [x2, x9, lsl 2]
	.loc 1 812 0
	strb	w20, [x10, -1]
.L97:
	add	x9, x9, 1
	add	x10, x10, 2
	add	x7, x7, 8
	.loc 1 656 0 discriminator 2
	cmp	w11, w9
	bgt	.L131
	add	x3, x3, x19
	add	x2, x2, x16
	add	x1, x1, x16
.L70:
	.loc 1 650 0 discriminator 2
	add	w13, w13, 1
	cmp	w18, w13
	bne	.L99
.L66:
	.loc 1 824 0
	ldp	x19, x20, [sp, 16]
	ldp	x21, x22, [sp, 32]
	ldp	x23, x24, [sp, 48]
	ldp	x25, x26, [sp, 64]
	ldr	x27, [sp, 80]
	ldp	x29, x30, [sp], 96
	.cfi_remember_state
	.cfi_restore 30
	.cfi_restore 29
	.cfi_restore 27
	.cfi_restore 25
	.cfi_restore 26
	.cfi_restore 23
	.cfi_restore 24
	.cfi_restore 21
	.cfi_restore 22
	.cfi_restore 19
	.cfi_restore 20
	.cfi_def_cfa 31, 0
	ret
	.p2align 3
.L149:
	.cfi_restore_state
	.loc 1 788 0
	and	w6, w6, -251658241
.LVL45:
	.loc 1 787 0
	mov	w21, 0
	.loc 1 788 0
	orr	w6, w24, w6
.LVL46:
	b	.L93
.LVL47:
	.p2align 3
.L150:
	.loc 1 806 0
	and	w6, w6, 268435455
.LVL48:
	.loc 1 805 0
	mov	w8, 0
	.loc 1 806 0
	orr	w6, w5, w6
.LVL49:
	b	.L96
.LVL50:
	.p2align 3
.L148:
	.loc 1 770 0
	and	w6, w6, -15728641
.LVL51:
	.loc 1 769 0
	mov	w21, 0
	.loc 1 770 0
	orr	w6, w25, w6
.LVL52:
	b	.L90
	.p2align 3
.L146:
	.loc 1 731 0
	and	w6, w6, -61441
.LVL53:
	.loc 1 730 0
	mov	w21, 0
	.loc 1 731 0
	orr	w6, w25, w6
.LVL54:
	b	.L84
	.p2align 3
.L147:
	.loc 1 752 0
	and	w6, w6, -983041
.LVL55:
	.loc 1 751 0
	mov	w21, 0
	.loc 1 752 0
	orr	w6, w23, w6
.LVL56:
	b	.L87
	.p2align 3
.L145:
	.loc 1 713 0
	and	w6, w6, -3841
.LVL57:
	.loc 1 712 0
	mov	w21, 0
	.loc 1 713 0
	orr	w6, w23, w6
.LVL58:
	b	.L81
	.p2align 3
.L143:
	.loc 1 677 0
	bfi	w6, w23, 0, 4
	.loc 1 676 0
	mov	w21, 0
	b	.L75
	.p2align 3
.L144:
	.loc 1 695 0
	and	w6, w6, -241
.LVL59:
	.loc 1 694 0
	mov	w21, 0
	.loc 1 695 0
	orr	w6, w25, w6
.LVL60:
	b	.L78
	.p2align 3
.L72:
	.loc 1 815 0
	strb	wzr, [x10, -2]
	.loc 1 816 0
	strb	wzr, [x10, -1]
	b	.L97
	.p2align 3
.L68:
	.loc 1 654 0
	ldr	w10, [x17, 84]
	mul	w10, w13, w10
	lsr	w10, w10, 2
	add	x10, x0, x10
.LVL61:
	b	.L71
	.cfi_endproc
.LFE2815:
	.size	get_overlay_image, .-get_overlay_image
	.align	2
	.p2align 3,,7
	.type	waveform_open, %function
waveform_open:
.LFB2846:
	.loc 1 2516 0
	.cfi_startproc
.LVL62:
	.loc 1 2520 0
	mov	w0, 0
.LVL63:
	.loc 1 2517 0
	str	xzr, [x1, 104]
	.loc 1 2520 0
	ret
	.cfi_endproc
.LFE2846:
	.size	waveform_open, .-waveform_open
	.section	.exit.text,"ax",@progbits
	.align	2
	.type	ebc_exit, %function
ebc_exit:
.LFB2866:
	.loc 1 3087 0
	.cfi_startproc
	stp	x29, x30, [sp, -16]!
	.cfi_def_cfa_offset 16
	.cfi_offset 29, -16
	.cfi_offset 30, -8
	.loc 1 3088 0
	adrp	x0, .LANCHOR1
	add	x0, x0, :lo12:.LANCHOR1
	.loc 1 3087 0
	add	x29, sp, 0
	.cfi_def_cfa_register 29
	.loc 1 3088 0
	bl	platform_driver_unregister
.LVL64:
	.loc 1 3089 0
	ldp	x29, x30, [sp], 16
	.cfi_restore 30
	.cfi_restore 29
	.cfi_def_cfa 31, 0
	ret
	.cfi_endproc
.LFE2866:
	.size	ebc_exit, .-ebc_exit
	.text
	.align	2
	.p2align 3,,7
	.type	ebc_resume, %function
ebc_resume:
.LFB2864:
	.loc 1 3049 0
	.cfi_startproc
.LVL65:
	stp	x29, x30, [sp, -32]!
	.cfi_def_cfa_offset 32
	.cfi_offset 29, -32
	.cfi_offset 30, -24
	add	x29, sp, 0
	.cfi_def_cfa_register 29
	str	x19, [sp, 16]
	.cfi_offset 19, -16
.LBB952:
.LBB953:
	.file 2 "./include/linux/device.h"
	.loc 2 1181 0
	ldr	x19, [x0, 184]
.LBE953:
.LBE952:
	.loc 1 3053 0
	ldr	x1, [x19, 16]
.LBB954:
.LBB955:
	.file 3 "drivers/gpu/drm/rockchip/ebc-dev/pmic/ebc_pmic.h"
	.loc 3 45 0
	mov	x0, x1
.LVL66:
	ldr	x1, [x1, 48]
	blr	x1
.LVL67:
.LBE955:
.LBE954:
	.loc 1 3054 0
	str	wzr, [x19, 804]
	.loc 1 3055 0
	ldr	x0, [x19, 288]
	adrp	x1, .LC0
	add	x1, x1, :lo12:.LC0
	bl	_dev_info
.LVL68:
	.loc 1 3058 0
	ldr	x19, [sp, 16]
	mov	w0, 0
	ldp	x29, x30, [sp], 32
	.cfi_restore 30
	.cfi_restore 29
	.cfi_restore 19
	.cfi_def_cfa 31, 0
	ret
	.cfi_endproc
.LFE2864:
	.size	ebc_resume, .-ebc_resume
	.align	2
	.p2align 3,,7
	.type	ebc_vdd_power_timeout, %function
ebc_vdd_power_timeout:
.LFB2839:
	.loc 1 2173 0
	.cfi_startproc
.LVL69:
	.loc 1 2174 0
	adrp	x0, .LANCHOR0
.LVL70:
	ldr	x0, [x0, #:lo12:.LANCHOR0]
	.loc 1 2176 0
	ldr	w2, [x0, 624]
	cbnz	w2, .L165
	ret
	.p2align 3
.L165:
	.loc 1 2173 0
	stp	x29, x30, [sp, -16]!
	.cfi_def_cfa_offset 16
	.cfi_offset 29, -16
	.cfi_offset 30, -8
.LBB956:
.LBB957:
	.file 4 "./include/linux/wakelock.h"
	.loc 4 68 0
	add	x0, x0, 416
.LBE957:
.LBE956:
	.loc 1 2173 0
	add	x29, sp, 0
	.cfi_def_cfa_register 29
	.loc 1 2177 0
	str	wzr, [x0, 208]
.LBB959:
.LBB958:
	.loc 4 68 0
	bl	__pm_relax
.LVL71:
.LBE958:
.LBE959:
	.loc 1 2182 0
	ldp	x29, x30, [sp], 16
	.cfi_restore 30
	.cfi_restore 29
	.cfi_def_cfa 31, 0
	ret
	.cfi_endproc
.LFE2839:
	.size	ebc_vdd_power_timeout, .-ebc_vdd_power_timeout
	.align	2
	.p2align 3,,7
	.type	ebc_remove, %function
ebc_remove:
.LFB2862:
	.loc 1 3025 0
	.cfi_startproc
.LVL72:
	stp	x29, x30, [sp, -16]!
	.cfi_def_cfa_offset 16
	.cfi_offset 29, -16
	.cfi_offset 30, -8
	.loc 1 3026 0
	adrp	x0, .LANCHOR1
.LVL73:
	add	x0, x0, :lo12:.LANCHOR1
	.loc 1 3025 0
	add	x29, sp, 0
	.cfi_def_cfa_register 29
	.loc 1 3026 0
	add	x0, x0, 224
	.loc 1 3025 0
	.loc 1 3026 0
	bl	misc_deregister
.LVL74:
	.loc 1 3029 0
	mov	w0, 0
	ldp	x29, x30, [sp], 16
	.cfi_restore 30
	.cfi_restore 29
	.cfi_def_cfa 31, 0
	ret
	.cfi_endproc
.LFE2862:
	.size	ebc_remove, .-ebc_remove
	.align	2
	.p2align 3,,7
	.type	ebc_mmap, %function
ebc_mmap:
.LFB2843:
	.loc 1 2462 0
	.cfi_startproc
.LVL75:
	stp	x29, x30, [sp, -32]!
	.cfi_def_cfa_offset 32
	.cfi_offset 29, -32
	.cfi_offset 30, -24
	add	x29, sp, 0
	.cfi_def_cfa_register 29
	str	x19, [sp, 16]
	.cfi_offset 19, -16
	.loc 1 2462 0
	mov	x19, x1
	.loc 1 2465 0
	bl	ebc_phy_buf_base_get
.LVL76:
	.loc 1 2468 0
	lsr	x2, x0, 12
	.loc 1 2466 0
	mov	x6, 16384
	.loc 1 2468 0
	mov	x0, x19
	.loc 1 2466 0
	ldp	x4, x5, [x19, 72]
	movk	x6, 0x404, lsl 16
	.loc 1 2468 0
	ldp	x1, x3, [x19]
	.loc 1 2466 0
	orr	x5, x5, x6
	str	x5, [x19, 80]
	.loc 1 2468 0
	sub	x3, x3, x1
	bl	remap_pfn_range
.LVL77:
	.loc 1 2471 0
	cmp	w0, 0
	mov	w1, -11
	.loc 1 2474 0
	ldr	x19, [sp, 16]
.LVL78:
	csel	w0, w0, w1, eq
	ldp	x29, x30, [sp], 32
	.cfi_restore 30
	.cfi_restore 29
	.cfi_restore 19
	.cfi_def_cfa 31, 0
	ret
	.cfi_endproc
.LFE2843:
	.size	ebc_mmap, .-ebc_mmap
	.align	2
	.p2align 3,,7
	.type	waveform_mmap, %function
waveform_mmap:
.LFB2845:
	.loc 1 2500 0
	.cfi_startproc
.LVL79:
	stp	x29, x30, [sp, -16]!
	.cfi_def_cfa_offset 16
	.cfi_offset 29, -16
	.cfi_offset 30, -8
	.loc 1 2501 0
	adrp	x2, .LANCHOR0
	.loc 1 2505 0
	mov	x7, 16384
	.loc 1 2507 0
	mov	x0, x1
.LVL80:
	.loc 1 2500 0
	add	x29, sp, 0
	.cfi_def_cfa_register 29
	.loc 1 2504 0
	ldr	x2, [x2, #:lo12:.LANCHOR0]
	.loc 1 2505 0
	movk	x7, 0x404, lsl 16
	ldp	x4, x5, [x1, 72]
	.loc 1 2507 0
	ldp	x6, x3, [x1]
	.loc 1 2505 0
	orr	x5, x5, x7
	.loc 1 2504 0
	ldr	x2, [x2, 216]
	.loc 1 2505 0
	str	x5, [x1, 80]
	.loc 1 2507 0
	sub	x3, x3, x6
	mov	x1, x6
.LVL81:
	lsr	x2, x2, 12
	bl	remap_pfn_range
.LVL82:
	.loc 1 2510 0
	cmp	w0, 0
	mov	w1, -11
	.loc 1 2513 0
	ldp	x29, x30, [sp], 16
	.cfi_restore 30
	.cfi_restore 29
	.cfi_def_cfa 31, 0
	csel	w0, w0, w1, eq
	ret
	.cfi_endproc
.LFE2845:
	.size	waveform_mmap, .-waveform_mmap
	.align	2
	.p2align 3,,7
	.type	ebc_io_ctl, %function
ebc_io_ctl:
.LFB2842:
	.loc 1 2258 0
	.cfi_startproc
.LVL83:
	stp	x29, x30, [sp, -160]!
	.cfi_def_cfa_offset 160
	.cfi_offset 29, -160
	.cfi_offset 30, -152
	.loc 1 2268 0
	cmp	w1, 28672
	.loc 1 2258 0
	add	x29, sp, 0
	.cfi_def_cfa_register 29
	stp	x19, x20, [sp, 16]
	.cfi_offset 19, -144
	.cfi_offset 20, -136
	adrp	x19, __stack_chk_guard
	stp	x21, x22, [sp, 32]
	add	x0, x19, :lo12:__stack_chk_guard
.LVL84:
	str	x23, [sp, 48]
	.cfi_offset 21, -128
	.cfi_offset 22, -120
	.cfi_offset 23, -112
	.loc 1 2258 0
	mov	x21, x2
	ldr	x3, [x0]
	str	x3, [x29, 152]
	mov	x3,0
	.loc 1 2260 0
	adrp	x0, .LANCHOR0
	ldr	x20, [x0, #:lo12:.LANCHOR0]
	.loc 1 2268 0
	bcc	.L177
	mov	w0, 28675
	cmp	w1, w0
	bls	.L178
	mov	w0, -28678
	add	w0, w1, w0
	cmp	w0, 1
	bls	.L178
.L177:
	.loc 1 2284 0
	mov	w0, 28677
	cmp	w1, w0
	beq	.L181
	bls	.L310
	mov	w0, 28680
	cmp	w1, w0
	beq	.L189
	bls	.L311
	mov	w0, 28682
	cmp	w1, w0
	beq	.L193
	bcc	.L194
	mov	w0, 28683
	cmp	w1, w0
	bne	.L180
	.loc 1 2439 0
	bl	ebc_empty_buf_get
.LVL85:
	mov	x23, x0
	.loc 1 2440 0
	cbz	x0, .L201
	.loc 1 2442 0
	ldp	w2, w3, [x20, 108]
	add	x22, x20, 24
	ldr	x1, [x20, 408]
	ldr	x0, [x0, 16]
	mul	w2, w2, w3
	ldr	x1, [x1, 16]
.L307:
	lsr	w2, w2, 1
	bl	memcpy
.LVL86:
	.loc 1 2443 0
	ldr	x20, [x23, 8]
	bl	ebc_phy_buf_base_get
.LVL87:
	sub	w0, w20, w0
.LBB960:
.LBB961:
.LBB962:
.LBB963:
.LBB964:
.LBB965:
.LBB966:
	.file 5 "./arch/arm64/include/asm/current.h"
	.loc 5 19 0
#APP
// 19 "./arch/arm64/include/asm/current.h" 1
	mrs x2, sp_el0
// 0 "" 2
.LVL88:
#NO_APP
.LBE966:
.LBE965:
	.file 6 "./arch/arm64/include/asm/uaccess.h"
	.loc 6 85 0
	ldr	w3, [x2, 52]
.LBE964:
.LBE963:
.LBE962:
.LBE961:
.LBE960:
	.loc 1 2445 0
	ldp	w1, w4, [x22, 84]
	.loc 1 2444 0
	str	w0, [x29, 104]
	.loc 1 2446 0
	stp	w4, w1, [x29, 112]
.LBB991:
.LBB988:
.LBB985:
.LBB975:
.LBB973:
	.loc 6 77 0
	ldr	x1, [x2, 8]
.LVL89:
	.loc 6 84 0
	tbnz	x3, 21, .L238
.LVL90:
.L304:
.LBB967:
.LBB968:
.LBB969:
	.file 7 "./include/asm-generic/bitops/non-atomic.h"
	.loc 7 106 0
	ldr	x2, [x2]
.LVL91:
.LBE969:
.LBE968:
.LBE967:
.LBE973:
.LBE975:
.LBE985:
.LBE988:
.LBE991:
	.loc 1 2259 0
	mov	x0, x21
.LVL92:
.LBB992:
.LBB989:
.LBB986:
.LBB976:
.LBB974:
	.loc 6 84 0
	tbz	x2, 26, .L239
.LVL93:
.L238:
.LBB970:
.LBB971:
.LBB972:
	.file 8 "./include/linux/bitops.h"
	.loc 8 157 0
	sbfx	x0, x21, 0, 56
.LVL94:
.LBE972:
.LBE971:
	.loc 6 86 0
	and	x0, x0, x21
.LVL95:
.L239:
.LBE970:
	.loc 6 89 0
#APP
// 89 "./arch/arm64/include/asm/uaccess.h" 1
		adds	x0, x0, 48
	csel	x1, xzr, x1, hi
	csinv	x0, x0, xzr, cc
	sbcs	xzr, x0, x1
	cset	x0, ls

// 0 "" 2
.LVL96:
#NO_APP
.LBE974:
.LBE976:
	.file 9 "./include/linux/uaccess.h"
	.loc 9 132 0
	mov	x22, 48
	cbnz	x0, .L312
.L240:
.LBE986:
.LBE989:
.LBE992:
	.loc 1 2448 0
	mov	x0, x23
.LVL97:
	bl	ebc_buf_release
.LVL98:
	.loc 1 2449 0
	b	.L176
.LVL99:
	.p2align 3
.L178:
	.loc 1 2275 0
	cbnz	x21, .L177
	.loc 1 2276 0
	ldr	x0, [x20, 288]
	adrp	x2, .LANCHOR2
	adrp	x1, .LC1
.LVL100:
	add	x2, x2, :lo12:.LANCHOR2
	add	x1, x1, :lo12:.LC1
	.loc 1 2277 0
	mov	x22, -14
	.loc 1 2276 0
	bl	_dev_err
.LVL101:
	.loc 1 2277 0
	b	.L176
.LVL102:
	.p2align 3
.L310:
	.loc 1 2284 0
	mov	w0, 28674
	cmp	w1, w0
	beq	.L183
	bls	.L313
	mov	w0, 28675
	cmp	w1, w0
	beq	.L187
	mov	w0, 28676
	cmp	w1, w0
	bne	.L180
	.loc 1 2370 0
	ldr	x0, [x20, 288]
	.loc 1 2369 0
	mov	w2, 1
	str	w2, [x20, 812]
	.loc 1 2370 0
	adrp	x1, .LC2
.LVL103:
	.loc 1 2371 0
	mov	x22, 0
	.loc 1 2370 0
	add	x1, x1, :lo12:.LC2
	bl	_dev_info
.LVL104:
	.p2align 2
.L176:
	.loc 1 2459 0
	add	x19, x19, :lo12:__stack_chk_guard
	mov	x0, x22
.LVL105:
	ldr	x2, [x29, 152]
	ldr	x1, [x19]
	eor	x1, x2, x1
.LVL106:
	cbnz	x1, .L314
	ldp	x19, x20, [sp, 16]
	ldp	x21, x22, [sp, 32]
.LVL107:
	ldr	x23, [sp, 48]
	ldp	x29, x30, [sp], 160
	.cfi_remember_state
	.cfi_restore 30
	.cfi_restore 29
	.cfi_restore 23
	.cfi_restore 21
	.cfi_restore 22
	.cfi_restore 19
	.cfi_restore 20
	.cfi_def_cfa 31, 0
	ret
.LVL108:
	.p2align 3
.L313:
	.cfi_restore_state
	.loc 1 2284 0
	cmp	w1, 28672
	beq	.L185
	mov	w0, 28673
	cmp	w1, w0
	bne	.L180
.LBB993:
.LBB994:
.LBB995:
.LBB996:
.LBB997:
.LBB998:
.LBB999:
	.loc 5 19 0
#APP
// 19 "./arch/arm64/include/asm/current.h" 1
	mrs x0, sp_el0
// 0 "" 2
.LVL109:
#NO_APP
.LBE999:
.LBE998:
	.loc 6 85 0
	ldr	w2, [x0, 52]
	.loc 6 77 0
	ldr	x1, [x0, 8]
.LVL110:
	.loc 6 84 0
	tbz	x2, 21, .L315
.LVL111:
.L206:
.LBB1000:
.LBB1001:
.LBB1002:
	.loc 8 157 0
	sbfx	x0, x21, 0, 56
.LVL112:
.LBE1002:
.LBE1001:
	.loc 6 86 0
	and	x0, x0, x21
.LVL113:
.L207:
.LBE1000:
	.loc 6 89 0
#APP
// 89 "./arch/arm64/include/asm/uaccess.h" 1
		adds	x0, x0, 48
	csel	x1, xzr, x1, hi
	csinv	x0, x0, xzr, cc
	sbcs	xzr, x0, x1
	cset	x0, ls

// 0 "" 2
.LVL114:
#NO_APP
.LBE997:
.LBE996:
	.loc 9 114 0
	cbz	x0, .L209
.LBB1008:
.LBB1009:
.LBB1010:
.LBB1011:
.LBB1012:
	.loc 8 157 0
	sbfx	x0, x21, 0, 56
.LVL115:
.LBE1012:
.LBE1011:
.LBE1010:
.LBB1013:
.LBB1014:
	.loc 5 19 0
#APP
// 19 "./arch/arm64/include/asm/current.h" 1
	mrs x1, sp_el0
// 0 "" 2
.LVL116:
#NO_APP
.LBE1014:
.LBE1013:
.LBB1015:
	.loc 6 254 0
	and	x0, x0, x21
.LVL117:
.LBE1015:
	.loc 6 249 0
	ldr	x2, [x1, 8]
#APP
// 249 "./arch/arm64/include/asm/uaccess.h" 1
		bics	xzr, x0, x2
	csel	x1, x21, xzr, eq

// 0 "" 2
.LVL118:
	.loc 6 257 0
// 257 "./arch/arm64/include/asm/uaccess.h" 1
	hint #20
// 0 "" 2
#NO_APP
.LBE1009:
.LBE1008:
	.loc 9 116 0
	mov	x2, 48
	add	x0, x29, 104
.LVL119:
	bl	__arch_copy_from_user
.LVL120:
	.loc 9 118 0
	cbnz	x0, .L209
.LBE995:
.LBE994:
.LBE993:
	.loc 1 2324 0
	bl	ebc_phy_buf_base_get
.LVL121:
	ldrsw	x1, [x29, 104]
	.loc 1 2325 0
	add	x0, x1, x0
	bl	ebc_find_buf_by_phy_addr
.LVL122:
	mov	x21, x0
.LVL123:
	.loc 1 2326 0
	cbz	x0, .L216
	.loc 1 2327 0
	ldr	w1, [x29, 108]
	.loc 1 2336 0
	add	x20, x20, 184
	.loc 1 2327 0
	str	w1, [x21, 40]
	.loc 1 2331 0
	ldp	w4, w2, [x29, 124]
	stp	w4, w2, [x21, 48]
	.loc 1 2330 0
	ldr	w3, [x29, 132]
	.loc 1 2332 0
	ldr	w1, [x29, 136]
	.loc 1 2328 0
	ldr	w5, [x29, 148]
	.loc 1 2330 0
	str	w3, [x21, 56]
	.loc 1 2328 0
	stp	w1, w5, [x21, 60]
	.loc 1 2334 0
	bl	ebc_add_to_dsp_buf_list
.LVL124:
	.loc 1 2336 0
	ldr	w0, [x20, 96]
	cbz	w0, .L316
.L211:
	.loc 1 2340 0
	ldr	w0, [x21, 40]
	cmp	w0, 18
	beq	.L317
	.loc 1 2340 0 is_stmt 0 discriminator 3
	cmp	w0, 20
	bne	.L216
.L213:
	.loc 1 2341 0 is_stmt 1
	mov	w0, 1
	str	w0, [x20, 204]
.LBB1022:
.LBB1023:
	.loc 1 2342 0
	mov	w1, 0
	add	x0, x29, 64
	bl	init_wait_entry
.LVL125:
	adrp	x0, .LANCHOR1
.LBB1024:
	add	x0, x0, :lo12:.LANCHOR1
	add	x21, x0, 328
	b	.L217
	.p2align 3
.L318:
.LVL126:
	.loc 1 2342 0 is_stmt 0 discriminator 5
	cbnz	x0, .L216
	.loc 1 2342 0 discriminator 7
	bl	schedule
.LVL127:
.L217:
	.loc 1 2342 0 discriminator 9
	add	x1, x29, 64
	mov	w2, 1
	mov	x0, x21
	bl	prepare_to_wait_event
.LVL128:
	ldr	w1, [x20, 204]
	cbnz	w1, .L318
.LBE1024:
	.loc 1 2342 0 discriminator 4
	add	x1, x29, 64
	mov	x0, x21
	bl	finish_wait
.LVL129:
	.p2align 2
.L216:
	mov	x22, 0
	b	.L176
.LVL130:
	.p2align 3
.L193:
.LBE1023:
.LBE1022:
	.loc 1 2426 0 is_stmt 1
	bl	ebc_empty_buf_get
.LVL131:
	mov	x23, x0
	.loc 1 2427 0
	cbz	x0, .L201
	.loc 1 2429 0
	ldp	w2, w3, [x20, 108]
	add	x22, x20, 24
	ldr	x1, [x20, 344]
	ldr	x0, [x0, 16]
	mul	w2, w2, w3
	b	.L307
.LVL132:
	.p2align 3
.L311:
	.loc 1 2284 0
	mov	w0, 28678
	cmp	w1, w0
	beq	.L191
	mov	w0, 28679
	cmp	w1, w0
	bne	.L180
.LBB1028:
.LBB1029:
.LBB1030:
.LBB1031:
.LBB1032:
.LBB1033:
.LBB1034:
	.loc 5 19 0
#APP
// 19 "./arch/arm64/include/asm/current.h" 1
	mrs x0, sp_el0
// 0 "" 2
.LVL133:
#NO_APP
.LBE1034:
.LBE1033:
	.loc 6 85 0
	ldr	w2, [x0, 52]
	.loc 6 77 0
	ldr	x1, [x0, 8]
.LVL134:
	.loc 6 84 0
	tbz	x2, 21, .L319
.LVL135:
.L218:
.LBB1035:
.LBB1036:
.LBB1037:
	.loc 8 157 0
	sbfx	x0, x21, 0, 56
.LVL136:
.LBE1037:
.LBE1036:
	.loc 6 86 0
	and	x0, x0, x21
.LVL137:
.L219:
.LBE1035:
	.loc 6 89 0
#APP
// 89 "./arch/arm64/include/asm/uaccess.h" 1
		adds	x0, x0, 48
	csel	x1, xzr, x1, hi
	csinv	x0, x0, xzr, cc
	sbcs	xzr, x0, x1
	cset	x0, ls

// 0 "" 2
.LVL138:
#NO_APP
.LBE1032:
.LBE1031:
	.loc 9 114 0
	cbz	x0, .L209
.LBB1043:
.LBB1044:
.LBB1045:
.LBB1046:
.LBB1047:
	.loc 8 157 0
	sbfx	x0, x21, 0, 56
.LVL139:
.LBE1047:
.LBE1046:
.LBE1045:
.LBB1048:
.LBB1049:
	.loc 5 19 0
#APP
// 19 "./arch/arm64/include/asm/current.h" 1
	mrs x1, sp_el0
// 0 "" 2
.LVL140:
#NO_APP
.LBE1049:
.LBE1048:
.LBB1050:
	.loc 6 254 0
	and	x0, x0, x21
.LVL141:
.LBE1050:
	.loc 6 249 0
	ldr	x2, [x1, 8]
#APP
// 249 "./arch/arm64/include/asm/uaccess.h" 1
		bics	xzr, x0, x2
	csel	x1, x21, xzr, eq

// 0 "" 2
.LVL142:
	.loc 6 257 0
// 257 "./arch/arm64/include/asm/uaccess.h" 1
	hint #20
// 0 "" 2
#NO_APP
.LBE1044:
.LBE1043:
	.loc 9 116 0
	mov	x2, 48
	add	x0, x29, 104
.LVL143:
	bl	__arch_copy_from_user
.LVL144:
	.loc 9 118 0
	cbnz	x0, .L209
.LBE1030:
.LBE1029:
.LBE1028:
	.loc 1 2351 0
	bl	ebc_osd_buf_clone
.LVL145:
	mov	x1, x0
	.loc 1 2352 0
	cbz	x0, .L216
	.loc 1 2353 0
	ldr	w6, [x29, 108]
	.loc 1 2362 0
	add	x20, x20, 184
	.loc 1 2357 0
	ldp	w5, w3, [x29, 124]
	.loc 1 2353 0
	str	w6, [x1, 40]
	.loc 1 2358 0
	ldp	w4, w2, [x29, 132]
	.loc 1 2357 0
	stp	w5, w3, [x1, 48]
	.loc 1 2358 0
	stp	w4, w2, [x1, 56]
	.loc 1 2360 0
	bl	ebc_add_to_dsp_buf_list
.LVL146:
	.loc 1 2362 0
	ldr	w0, [x20, 96]
	cbnz	w0, .L216
	.loc 1 2363 0
	mov	w2, 1
	str	w2, [x20, 96]
	.loc 1 2364 0
	adrp	x0, .LANCHOR1
	add	x0, x0, :lo12:.LANCHOR1
	mov	w1, w2
	add	x0, x0, 304
	mov	x22, 0
	bl	__wake_up_sync
.LVL147:
	b	.L176
.LVL148:
	.p2align 3
.L312:
.LBB1057:
.LBB990:
.LBB987:
.LBB977:
.LBB978:
.LBB979:
.LBB980:
.LBB981:
	.loc 8 157 0
	sbfx	x1, x21, 0, 56
.LVL149:
.LBE981:
.LBE980:
.LBE979:
.LBB982:
.LBB983:
	.loc 5 19 0
#APP
// 19 "./arch/arm64/include/asm/current.h" 1
	mrs x0, sp_el0
// 0 "" 2
.LVL150:
#NO_APP
.LBE983:
.LBE982:
.LBB984:
	.loc 6 254 0
	and	x1, x1, x21
.LVL151:
.LBE984:
	.loc 6 249 0
	ldr	x2, [x0, 8]
.LVL152:
#APP
// 249 "./arch/arm64/include/asm/uaccess.h" 1
		bics	xzr, x1, x2
	csel	x0, x21, xzr, eq

// 0 "" 2
.LVL153:
	.loc 6 257 0
// 257 "./arch/arm64/include/asm/uaccess.h" 1
	hint #20
// 0 "" 2
#NO_APP
.LBE978:
.LBE977:
	.loc 9 134 0
	mov	x2, x22
	add	x1, x29, 104
.LVL154:
	bl	__arch_copy_to_user
.LVL155:
	sxtw	x22, w0
	b	.L240
.LVL156:
	.p2align 3
.L191:
.LBE987:
.LBE990:
.LBE1057:
	.loc 1 2286 0
	bl	ebc_osd_buf_get
.LVL157:
	.loc 1 2287 0
	cbz	x0, .L201
	.loc 1 2290 0
	ldr	x22, [x0, 8]
	bl	ebc_phy_buf_base_get
.LVL158:
	.loc 1 2295 0
	ldr	w1, [x20, 176]
.LBB1058:
.LBB1059:
.LBB1060:
.LBB1061:
.LBB1062:
.LBB1063:
.LBB1064:
	.loc 5 19 0
#APP
// 19 "./arch/arm64/include/asm/current.h" 1
	mrs x2, sp_el0
// 0 "" 2
.LVL159:
#NO_APP
.LBE1064:
.LBE1063:
	.loc 6 85 0
	ldr	w3, [x2, 52]
.LBE1062:
.LBE1061:
.LBE1060:
.LBE1059:
.LBE1058:
	.loc 1 2290 0
	sub	w0, w22, w0
	.loc 1 2294 0
	ldp	w5, w4, [x20, 108]
	.loc 1 2295 0
	str	w1, [x29, 120]
	.loc 1 2293 0
	stp	w4, w5, [x29, 112]
	.loc 1 2296 0
	mov	w1, 16
	.loc 1 2292 0
	str	w0, [x29, 104]
	.loc 1 2296 0
	str	w1, [x29, 148]
.LBB1091:
.LBB1088:
.LBB1085:
.LBB1074:
.LBB1071:
	.loc 6 77 0
	ldr	x1, [x2, 8]
.LVL160:
	.loc 6 84 0
	tbz	x3, 21, .L320
.LVL161:
.L197:
.LBB1065:
.LBB1066:
.LBB1067:
	.loc 8 157 0
	sbfx	x0, x21, 0, 56
.LVL162:
.LBE1067:
.LBE1066:
	.loc 6 86 0
	and	x0, x0, x21
.LVL163:
.L198:
.LBE1065:
	.loc 6 89 0
#APP
// 89 "./arch/arm64/include/asm/uaccess.h" 1
		adds	x0, x0, 48
	csel	x1, xzr, x1, hi
	csinv	x0, x0, xzr, cc
	sbcs	xzr, x0, x1
	cset	x0, ls

// 0 "" 2
.LVL164:
#NO_APP
.LBE1071:
.LBE1074:
	.loc 9 132 0
	mov	x22, 48
	cbz	x0, .L176
.LBB1075:
.LBB1076:
.LBB1077:
.LBB1078:
.LBB1079:
	.loc 8 157 0
	sbfx	x1, x21, 0, 56
.LVL165:
.LBE1079:
.LBE1078:
.LBE1077:
.LBB1080:
.LBB1081:
	.loc 5 19 0
#APP
// 19 "./arch/arm64/include/asm/current.h" 1
	mrs x0, sp_el0
// 0 "" 2
.LVL166:
#NO_APP
.LBE1081:
.LBE1080:
.LBB1082:
	.loc 6 254 0
	and	x1, x1, x21
.LVL167:
.LBE1082:
	.loc 6 249 0
	ldr	x2, [x0, 8]
.LVL168:
#APP
// 249 "./arch/arm64/include/asm/uaccess.h" 1
		bics	xzr, x1, x2
	csel	x0, x21, xzr, eq

// 0 "" 2
.LVL169:
	.loc 6 257 0
// 257 "./arch/arm64/include/asm/uaccess.h" 1
	hint #20
// 0 "" 2
#NO_APP
.LBE1076:
.LBE1075:
	.loc 9 134 0
	mov	x2, x22
	add	x1, x29, 104
.LVL170:
	bl	__arch_copy_to_user
.LVL171:
	sxtw	x22, w0
	b	.L176
.LVL172:
	.p2align 3
.L187:
.LBE1085:
.LBE1088:
.LBE1091:
.LBB1092:
.LBB1093:
.LBB1094:
.LBB1095:
.LBB1096:
.LBB1097:
.LBB1098:
	.loc 5 19 0
#APP
// 19 "./arch/arm64/include/asm/current.h" 1
	mrs x0, sp_el0
// 0 "" 2
.LVL173:
#NO_APP
.LBE1098:
.LBE1097:
	.loc 6 85 0
	ldr	w2, [x0, 52]
.LBE1096:
.LBE1095:
.LBE1094:
.LBE1093:
.LBE1092:
	.loc 1 2378 0
	add	x22, x20, 248
.LBB1127:
.LBB1123:
.LBB1119:
.LBB1108:
.LBB1105:
	.loc 6 77 0
	ldr	x1, [x0, 8]
.LVL174:
	.loc 6 84 0
	tbz	x2, 21, .L321
.LVL175:
.L221:
.LBB1099:
.LBB1100:
.LBB1101:
	.loc 8 157 0
	sbfx	x0, x21, 0, 56
.LVL176:
.LBE1101:
.LBE1100:
	.loc 6 86 0
	and	x0, x0, x21
.LVL177:
.L222:
.LBE1099:
	.loc 6 89 0
#APP
// 89 "./arch/arm64/include/asm/uaccess.h" 1
		adds	x0, x0, 4
	csel	x1, xzr, x1, hi
	csinv	x0, x0, xzr, cc
	sbcs	xzr, x0, x1
	cset	x0, ls

// 0 "" 2
.LVL178:
#NO_APP
	mov	x3, x0
.LBE1105:
.LBE1108:
	.loc 9 114 0
	cbz	x0, .L250
.LBB1109:
.LBB1110:
.LBB1111:
.LBB1112:
.LBB1113:
	.loc 8 157 0
	sbfx	x0, x21, 0, 56
.LBE1113:
.LBE1112:
.LBE1111:
.LBB1114:
.LBB1115:
	.loc 5 19 0
#APP
// 19 "./arch/arm64/include/asm/current.h" 1
	mrs x1, sp_el0
// 0 "" 2
.LVL179:
#NO_APP
.LBE1115:
.LBE1114:
.LBB1116:
	.loc 6 254 0
	and	x0, x0, x21
.LVL180:
.LBE1116:
	.loc 6 249 0
	ldr	x2, [x1, 8]
#APP
// 249 "./arch/arm64/include/asm/uaccess.h" 1
		bics	xzr, x0, x2
	csel	x1, x21, xzr, eq

// 0 "" 2
.LVL181:
	.loc 6 257 0
// 257 "./arch/arm64/include/asm/uaccess.h" 1
	hint #20
// 0 "" 2
#NO_APP
.LBE1110:
.LBE1109:
	.loc 9 116 0
	mov	x2, 4
	mov	x0, x22
.LVL182:
	bl	__arch_copy_from_user
.LVL183:
	.loc 9 118 0
	cbnz	x0, .L322
.LBE1119:
.LBE1123:
.LBE1127:
	.loc 1 2382 0
	add	x20, x20, 184
	ldr	w2, [x20, 64]
	ldr	x0, [x20, 104]
.LVL184:
	.loc 1 2383 0
	mov	x22, 0
	.loc 1 2382 0
	adrp	x1, .LC7
	add	x1, x1, :lo12:.LC7
	bl	_dev_info
.LVL185:
	.loc 1 2383 0
	b	.L176
.LVL186:
	.p2align 3
.L181:
	.loc 1 2375 0
	ldr	x0, [x20, 288]
	adrp	x1, .LC3
.LVL187:
	.loc 1 2373 0
	str	wzr, [x20, 812]
	.loc 1 2376 0
	mov	x22, 0
	.loc 1 2374 0
	str	wzr, [x20, 816]
	.loc 1 2375 0
	add	x1, x1, :lo12:.LC3
	bl	_dev_info
.LVL188:
	.loc 1 2376 0
	b	.L176
.LVL189:
	.p2align 3
.L189:
	.loc 1 2413 0
	bl	ebc_empty_buf_get
.LVL190:
	mov	x23, x0
	.loc 1 2414 0
	cbz	x0, .L201
	.loc 1 2416 0
	ldp	w2, w3, [x20, 108]
	add	x22, x20, 24
	ldr	x1, [x20, 336]
	ldr	x0, [x0, 16]
	mul	w2, w2, w3
	b	.L307
.LVL191:
	.p2align 3
.L194:
	.loc 1 2400 0
	bl	ebc_empty_buf_get
.LVL192:
	mov	x23, x0
	.loc 1 2401 0
	cbz	x0, .L201
	.loc 1 2403 0
	ldp	w2, w3, [x20, 108]
	add	x22, x20, 24
	ldr	x1, [x20, 328]
	ldr	x0, [x0, 16]
	mul	w2, w2, w3
	lsr	w2, w2, 1
	bl	memcpy
.LVL193:
	.loc 1 2404 0
	ldr	x20, [x23, 8]
	bl	ebc_phy_buf_base_get
.LVL194:
	sub	w0, w20, w0
.LBB1128:
.LBB1129:
.LBB1130:
.LBB1131:
.LBB1132:
.LBB1133:
.LBB1134:
	.loc 5 19 0
#APP
// 19 "./arch/arm64/include/asm/current.h" 1
	mrs x2, sp_el0
// 0 "" 2
.LVL195:
#NO_APP
.LBE1134:
.LBE1133:
	.loc 6 85 0
	ldr	w3, [x2, 52]
.LBE1132:
.LBE1131:
.LBE1130:
.LBE1129:
.LBE1128:
	.loc 1 2407 0
	ldp	w4, w1, [x22, 84]
	.loc 1 2405 0
	str	w0, [x29, 104]
	.loc 1 2406 0
	stp	w1, w4, [x29, 112]
.LBB1139:
.LBB1138:
.LBB1137:
.LBB1136:
.LBB1135:
	.loc 6 77 0
	ldr	x1, [x2, 8]
.LVL196:
	.loc 6 84 0
	tbnz	x3, 21, .L238
	b	.L304
.LVL197:
	.p2align 3
.L183:
.LBE1135:
.LBE1136:
.LBE1137:
.LBE1138:
.LBE1139:
	.loc 1 2389 0
	ldp	w1, w0, [x20, 116]
.LVL198:
.LBB1140:
.LBB1141:
.LBB1142:
.LBB1143:
.LBB1144:
.LBB1145:
.LBB1146:
	.loc 5 19 0
#APP
// 19 "./arch/arm64/include/asm/current.h" 1
	mrs x2, sp_el0
// 0 "" 2
.LVL199:
#NO_APP
.LBE1146:
.LBE1145:
	.loc 6 85 0
	ldr	w3, [x2, 52]
.LBE1144:
.LBE1143:
.LBE1142:
.LBE1141:
.LBE1140:
	.loc 1 2386 0
	ldp	w6, w5, [x20, 108]
	.loc 1 2389 0
	stp	w1, w0, [x29, 140]
	.loc 1 2387 0
	ldr	w4, [x20, 176]
	.loc 1 2390 0
	mov	w0, 16
	.loc 1 2385 0
	stp	w5, w6, [x29, 112]
	.loc 1 2387 0
	str	w4, [x29, 120]
	.loc 1 2390 0
	str	w0, [x29, 148]
.LBB1175:
.LBB1171:
.LBB1167:
.LBB1156:
.LBB1153:
	.loc 6 77 0
	ldr	x1, [x2, 8]
.LVL200:
	.loc 6 84 0
	tbz	x3, 21, .L323
.LVL201:
.L225:
.LBB1147:
.LBB1148:
.LBB1149:
	.loc 8 157 0
	sbfx	x0, x21, 0, 56
.LVL202:
.LBE1149:
.LBE1148:
	.loc 6 86 0
	and	x0, x0, x21
.LVL203:
.L226:
.LBE1147:
	.loc 6 89 0
#APP
// 89 "./arch/arm64/include/asm/uaccess.h" 1
		adds	x0, x0, 48
	csel	x1, xzr, x1, hi
	csinv	x0, x0, xzr, cc
	sbcs	xzr, x0, x1
	cset	x0, ls

// 0 "" 2
.LVL204:
#NO_APP
.LBE1153:
.LBE1156:
	.loc 9 132 0
	cbnz	x0, .L227
.L228:
.LBE1167:
.LBE1171:
.LBE1175:
	.loc 1 2393 0
	ldr	x0, [x20, 288]
.LVL205:
	adrp	x1, .LC5
.LVL206:
	.loc 1 2394 0
	mov	x22, -14
	.loc 1 2393 0
	add	x1, x1, :lo12:.LC5
	bl	_dev_err
.LVL207:
	.loc 1 2394 0
	b	.L176
.LVL208:
	.p2align 3
.L180:
	.loc 1 2454 0
	ldr	x0, [x20, 288]
	adrp	x2, .LANCHOR2
	adrp	x1, .LC6
.LVL209:
	add	x2, x2, :lo12:.LANCHOR2
	add	x1, x1, :lo12:.LC6
	.loc 1 2455 0
	mov	x22, 0
	.loc 1 2454 0
	bl	_dev_err
.LVL210:
	.loc 1 2458 0
	b	.L176
.LVL211:
	.p2align 3
.L185:
	.loc 1 2301 0
	bl	ebc_empty_buf_get
.LVL212:
	mov	x23, x0
	.loc 1 2302 0
	cbz	x0, .L201
	.loc 1 2305 0
	ldr	x22, [x0, 8]
	bl	ebc_phy_buf_base_get
.LVL213:
	.loc 1 2310 0
	ldr	w1, [x20, 176]
.LBB1176:
.LBB1177:
.LBB1178:
.LBB1179:
.LBB1180:
.LBB1181:
.LBB1182:
	.loc 5 19 0
#APP
// 19 "./arch/arm64/include/asm/current.h" 1
	mrs x2, sp_el0
// 0 "" 2
.LVL214:
#NO_APP
.LBE1182:
.LBE1181:
	.loc 6 85 0
	ldr	w3, [x2, 52]
.LBE1180:
.LBE1179:
.LBE1178:
.LBE1177:
.LBE1176:
	.loc 1 2305 0
	sub	w0, w22, w0
	.loc 1 2309 0
	ldp	w5, w4, [x20, 108]
	.loc 1 2310 0
	str	w1, [x29, 120]
	.loc 1 2308 0
	stp	w4, w5, [x29, 112]
	.loc 1 2311 0
	mov	w1, 16
	.loc 1 2307 0
	str	w0, [x29, 104]
	.loc 1 2311 0
	str	w1, [x29, 148]
.LBB1211:
.LBB1207:
.LBB1203:
.LBB1192:
.LBB1189:
	.loc 6 77 0
	ldr	x1, [x2, 8]
.LVL215:
	.loc 6 84 0
	tbz	x3, 21, .L324
.LVL216:
.L202:
.LBB1183:
.LBB1184:
.LBB1185:
	.loc 8 157 0
	sbfx	x0, x21, 0, 56
.LVL217:
.LBE1185:
.LBE1184:
	.loc 6 86 0
	and	x0, x0, x21
.LVL218:
.L203:
.LBE1183:
	.loc 6 89 0
#APP
// 89 "./arch/arm64/include/asm/uaccess.h" 1
		adds	x0, x0, 48
	csel	x1, xzr, x1, hi
	csinv	x0, x0, xzr, cc
	sbcs	xzr, x0, x1
	cset	x0, ls

// 0 "" 2
.LVL219:
#NO_APP
.LBE1189:
.LBE1192:
	.loc 9 132 0
	cbnz	x0, .L204
.L205:
.LBE1203:
.LBE1207:
.LBE1211:
	.loc 1 2315 0
	mov	x0, x23
.LVL220:
	.loc 1 2316 0
	mov	x22, -14
	.loc 1 2315 0
	bl	ebc_buf_release
.LVL221:
	.loc 1 2316 0
	b	.L176
.LVL222:
	.p2align 3
.L319:
.LBB1212:
.LBB1055:
.LBB1053:
.LBB1051:
.LBB1041:
.LBB1038:
.LBB1039:
.LBB1040:
	.loc 7 106 0
	ldr	x2, [x0]
.LBE1040:
.LBE1039:
.LBE1038:
.LBE1041:
.LBE1051:
.LBE1053:
.LBE1055:
.LBE1212:
	.loc 1 2259 0
	mov	x0, x21
.LVL223:
.LBB1213:
.LBB1056:
.LBB1054:
.LBB1052:
.LBB1042:
	.loc 6 84 0
	tbz	x2, 26, .L219
	b	.L218
.LVL224:
	.p2align 3
.L315:
.LBE1042:
.LBE1052:
.LBE1054:
.LBE1056:
.LBE1213:
.LBB1214:
.LBB1020:
.LBB1018:
.LBB1016:
.LBB1006:
.LBB1003:
.LBB1004:
.LBB1005:
	.loc 7 106 0
	ldr	x2, [x0]
.LBE1005:
.LBE1004:
.LBE1003:
.LBE1006:
.LBE1016:
.LBE1018:
.LBE1020:
.LBE1214:
	.loc 1 2259 0
	mov	x0, x21
.LVL225:
.LBB1215:
.LBB1021:
.LBB1019:
.LBB1017:
.LBB1007:
	.loc 6 84 0
	tbz	x2, 26, .L207
	b	.L206
.LVL226:
	.p2align 3
.L323:
.LBE1007:
.LBE1017:
.LBE1019:
.LBE1021:
.LBE1215:
.LBB1216:
.LBB1172:
.LBB1168:
.LBB1157:
.LBB1154:
.LBB1150:
.LBB1151:
.LBB1152:
	.loc 7 106 0
	ldr	x2, [x2]
.LVL227:
.LBE1152:
.LBE1151:
.LBE1150:
.LBE1154:
.LBE1157:
.LBE1168:
.LBE1172:
.LBE1216:
	.loc 1 2259 0
	mov	x0, x21
.LVL228:
.LBB1217:
.LBB1173:
.LBB1169:
.LBB1158:
.LBB1155:
	.loc 6 84 0
	tbz	x2, 26, .L226
	b	.L225
.LVL229:
	.p2align 3
.L321:
.LBE1155:
.LBE1158:
.LBE1169:
.LBE1173:
.LBE1217:
.LBB1218:
.LBB1124:
.LBB1120:
.LBB1117:
.LBB1106:
.LBB1102:
.LBB1103:
.LBB1104:
	.loc 7 106 0
	ldr	x2, [x0]
.LBE1104:
.LBE1103:
.LBE1102:
.LBE1106:
.LBE1117:
.LBE1120:
.LBE1124:
.LBE1218:
	.loc 1 2259 0
	mov	x0, x21
.LVL230:
.LBB1219:
.LBB1125:
.LBB1121:
.LBB1118:
.LBB1107:
	.loc 6 84 0
	tbz	x2, 26, .L222
	b	.L221
.LVL231:
	.p2align 3
.L324:
.LBE1107:
.LBE1118:
.LBE1121:
.LBE1125:
.LBE1219:
.LBB1220:
.LBB1208:
.LBB1204:
.LBB1193:
.LBB1190:
.LBB1186:
.LBB1187:
.LBB1188:
	.loc 7 106 0
	ldr	x2, [x2]
.LVL232:
.LBE1188:
.LBE1187:
.LBE1186:
.LBE1190:
.LBE1193:
.LBE1204:
.LBE1208:
.LBE1220:
	.loc 1 2259 0
	mov	x0, x21
.LVL233:
.LBB1221:
.LBB1209:
.LBB1205:
.LBB1194:
.LBB1191:
	.loc 6 84 0
	tbz	x2, 26, .L203
	b	.L202
.LVL234:
	.p2align 3
.L320:
.LBE1191:
.LBE1194:
.LBE1205:
.LBE1209:
.LBE1221:
.LBB1222:
.LBB1089:
.LBB1086:
.LBB1083:
.LBB1072:
.LBB1068:
.LBB1069:
.LBB1070:
	.loc 7 106 0
	ldr	x2, [x2]
.LVL235:
.LBE1070:
.LBE1069:
.LBE1068:
.LBE1072:
.LBE1083:
.LBE1086:
.LBE1089:
.LBE1222:
	.loc 1 2259 0
	mov	x0, x21
.LVL236:
.LBB1223:
.LBB1090:
.LBB1087:
.LBB1084:
.LBB1073:
	.loc 6 84 0
	tbz	x2, 26, .L198
	b	.L197
.LVL237:
	.p2align 3
.L227:
.LBE1073:
.LBE1084:
.LBE1087:
.LBE1090:
.LBE1223:
.LBB1224:
.LBB1174:
.LBB1170:
.LBB1159:
.LBB1160:
.LBB1161:
.LBB1162:
.LBB1163:
	.loc 8 157 0
	sbfx	x1, x21, 0, 56
.LVL238:
.LBE1163:
.LBE1162:
.LBE1161:
.LBB1164:
.LBB1165:
	.loc 5 19 0
#APP
// 19 "./arch/arm64/include/asm/current.h" 1
	mrs x0, sp_el0
// 0 "" 2
.LVL239:
#NO_APP
.LBE1165:
.LBE1164:
.LBB1166:
	.loc 6 254 0
	and	x1, x1, x21
.LVL240:
.LBE1166:
	.loc 6 249 0
	ldr	x2, [x0, 8]
.LVL241:
#APP
// 249 "./arch/arm64/include/asm/uaccess.h" 1
		bics	xzr, x1, x2
	csel	x0, x21, xzr, eq

// 0 "" 2
.LVL242:
	.loc 6 257 0
// 257 "./arch/arm64/include/asm/uaccess.h" 1
	hint #20
// 0 "" 2
#NO_APP
.LBE1160:
.LBE1159:
	.loc 9 134 0
	mov	x2, 48
	add	x1, x29, 104
.LVL243:
	bl	__arch_copy_to_user
.LVL244:
.LBE1170:
.LBE1174:
.LBE1224:
	.loc 1 2392 0
	cbnz	x0, .L228
.LBB1225:
.LBB1025:
	mov	x22, 0
	b	.L176
.LVL245:
	.p2align 3
.L204:
.LBE1025:
.LBE1225:
.LBB1226:
.LBB1210:
.LBB1206:
.LBB1195:
.LBB1196:
.LBB1197:
.LBB1198:
.LBB1199:
	.loc 8 157 0
	sbfx	x1, x21, 0, 56
.LVL246:
.LBE1199:
.LBE1198:
.LBE1197:
.LBB1200:
.LBB1201:
	.loc 5 19 0
#APP
// 19 "./arch/arm64/include/asm/current.h" 1
	mrs x0, sp_el0
// 0 "" 2
.LVL247:
#NO_APP
.LBE1201:
.LBE1200:
.LBB1202:
	.loc 6 254 0
	and	x1, x1, x21
.LVL248:
.LBE1202:
	.loc 6 249 0
	ldr	x2, [x0, 8]
.LVL249:
#APP
// 249 "./arch/arm64/include/asm/uaccess.h" 1
		bics	xzr, x1, x2
	csel	x0, x21, xzr, eq

// 0 "" 2
.LVL250:
	.loc 6 257 0
// 257 "./arch/arm64/include/asm/uaccess.h" 1
	hint #20
// 0 "" 2
#NO_APP
.LBE1196:
.LBE1195:
	.loc 9 134 0
	mov	x2, 48
	add	x1, x29, 104
.LVL251:
	bl	__arch_copy_to_user
.LVL252:
.LBE1206:
.LBE1210:
.LBE1226:
	.loc 1 2314 0
	cbnz	w0, .L205
.LBB1227:
.LBB1026:
	mov	x22, 0
	b	.L176
.LVL253:
	.p2align 3
.L209:
.LBE1026:
.LBE1227:
	.loc 1 2322 0
	mov	x22, -14
	b	.L176
.LVL254:
	.p2align 3
.L316:
	.loc 1 2337 0
	mov	w2, 1
	str	w2, [x20, 96]
	.loc 1 2338 0
	adrp	x0, .LANCHOR1
	add	x0, x0, :lo12:.LANCHOR1
	mov	w1, w2
	add	x0, x0, 304
	bl	__wake_up_sync
.LVL255:
	b	.L211
	.p2align 3
.L317:
	.loc 1 2340 0 discriminator 1
	ldr	w0, [x20, 616]
	cbz	w0, .L213
.LBB1228:
.LBB1027:
	mov	x22, 0
	b	.L176
.LVL256:
.L201:
.LBE1027:
.LBE1228:
	.loc 1 2288 0
	mov	x22, -1
	b	.L176
.LVL257:
.L250:
.LBB1229:
.LBB1126:
.LBB1122:
	.loc 9 112 0
	mov	x0, 4
.LVL258:
.L223:
	.loc 9 119 0
	mov	x2, x0
	mov	w1, 0
.LVL259:
	add	x0, x22, x3
.LVL260:
	bl	memset
.LVL261:
.LBE1122:
.LBE1126:
.LBE1229:
	.loc 1 2379 0
	ldr	x0, [x20, 288]
	adrp	x1, .LC4
	.loc 1 2380 0
	mov	x22, -14
	.loc 1 2379 0
	add	x1, x1, :lo12:.LC4
	bl	_dev_err
.LVL262:
	.loc 1 2380 0
	b	.L176
.L314:
	.loc 1 2459 0
	bl	__stack_chk_fail
.LVL263:
.L322:
	mov	x3, 4
	sub	x3, x3, x0
.LVL264:
	b	.L223
	.cfi_endproc
.LFE2842:
	.size	ebc_io_ctl, .-ebc_io_ctl
	.align	2
	.p2align 3,,7
	.type	frame_done_callback, %function
frame_done_callback:
.LFB2832:
	.loc 1 1608 0
	.cfi_startproc
	stp	x29, x30, [sp, -48]!
	.cfi_def_cfa_offset 48
	.cfi_offset 29, -48
	.cfi_offset 30, -40
	.loc 1 1609 0
	adrp	x1, .LANCHOR0
	.loc 1 1608 0
	add	x29, sp, 0
	.cfi_def_cfa_register 29
	stp	x19, x20, [sp, 16]
	.cfi_offset 19, -32
	.cfi_offset 20, -24
	.loc 1 1609 0
	ldr	x20, [x1, #:lo12:.LANCHOR0]
	.loc 1 1608 0
	str	x21, [sp, 32]
	.cfi_offset 21, -16
	.loc 1 1612 0
	add	x19, x20, 184
	ldr	x0, [x19, 224]
	ldr	w0, [x0, 40]
	tbnz	w0, #31, .L326
	cmp	w0, 1
	ble	.L327
	sub	w0, w0, #22
	cmp	w0, 1
	bls	.L327
.L326:
	.loc 1 1632 0
	ldr	w0, [x19, 56]
	cbnz	w0, .L332
	.loc 1 1638 0
	ldr	x0, [x19, 104]
	.loc 1 1637 0
	mov	w20, 1
	.loc 1 1636 0
	str	wzr, [x19, 44]
	.loc 1 1638 0
	adrp	x1, .LC9
	.loc 1 1637 0
	str	w20, [x19, 92]
	.loc 1 1638 0
	add	x1, x1, :lo12:.LC9
	.loc 1 1639 0
	adrp	x19, .LANCHOR1
	add	x19, x19, :lo12:.LANCHOR1
	.loc 1 1638 0
	bl	_dev_info
.LVL265:
	.loc 1 1639 0
	mov	w2, w20
	add	x0, x19, 352
	mov	w1, w20
	bl	__wake_up_sync
.LVL266:
	.loc 1 1640 0
	mov	w2, w20
	mov	w1, w20
	add	x0, x19, 304
	bl	__wake_up_sync
.LVL267:
	.loc 1 1644 0
	ldp	x19, x20, [sp, 16]
	ldr	x21, [sp, 32]
	ldp	x29, x30, [sp], 48
	.cfi_remember_state
	.cfi_restore 30
	.cfi_restore 29
	.cfi_restore 21
	.cfi_restore 19
	.cfi_restore 20
	.cfi_def_cfa 31, 0
	ret
	.p2align 3
.L327:
	.cfi_restore_state
	.loc 1 1617 0
	ldr	w0, [x19, 52]
	cbz	w0, .L328
	.loc 1 1618 0
	add	x1, x1, :lo12:.LANCHOR0
	ldr	x0, [x1, 8]
	bl	wake_up_process
.LVL268:
	.loc 1 1644 0
	ldr	x21, [sp, 32]
	ldp	x19, x20, [sp, 16]
	ldp	x29, x30, [sp], 48
	.cfi_remember_state
	.cfi_restore 20
	.cfi_restore 19
	.cfi_restore 21
	.cfi_restore 29
	.cfi_restore 30
	.cfi_def_cfa 31, 0
	ret
	.p2align 3
.L328:
	.cfi_restore_state
	.loc 1 1621 0
	ldr	x0, [x19, 104]
	adrp	x1, .LC8
	add	x1, x1, :lo12:.LC8
	.loc 1 1626 0
	mov	w21, 1
	.loc 1 1621 0
	bl	_dev_info
.LVL269:
	.loc 1 1623 0
	ldp	w3, w2, [x20, 108]
	mov	w1, 0
	ldr	x0, [x19, 168]
	mul	w2, w3, w2
	bl	memset
.LVL270:
	.loc 1 1624 0
	adrp	x2, jiffies
	add	x0, x20, 688
	mov	x1, 402653184
	ldr	x2, [x2, #:lo12:jiffies]
	add	x1, x2, x1
	bl	mod_timer
.LVL271:
	.loc 1 1626 0
	str	w21, [x19, 92]
	.loc 1 1625 0
	str	wzr, [x19, 44]
	.loc 1 1627 0
	adrp	x19, .LANCHOR1
	add	x19, x19, :lo12:.LANCHOR1
	mov	w2, w21
	mov	w1, w21
	add	x0, x19, 352
	bl	__wake_up_sync
.LVL272:
	.loc 1 1628 0
	mov	w2, w21
	mov	w1, w21
	add	x0, x19, 304
	bl	__wake_up_sync
.LVL273:
	.loc 1 1644 0
	ldp	x19, x20, [sp, 16]
	ldr	x21, [sp, 32]
	ldp	x29, x30, [sp], 48
	.cfi_remember_state
	.cfi_restore 20
	.cfi_restore 19
	.cfi_restore 21
	.cfi_restore 29
	.cfi_restore 30
	.cfi_def_cfa 31, 0
	ret
	.p2align 3
.L332:
	.cfi_restore_state
	.loc 1 1634 0
	add	x1, x1, :lo12:.LANCHOR0
	.loc 1 1633 0
	mov	w0, 1
	str	w0, [x19, 44]
	.loc 1 1634 0
	ldr	x0, [x1, 8]
	bl	wake_up_process
.LVL274:
	.loc 1 1644 0
	ldr	x21, [sp, 32]
	ldp	x19, x20, [sp, 16]
	ldp	x29, x30, [sp], 48
	.cfi_restore 20
	.cfi_restore 19
	.cfi_restore 21
	.cfi_restore 29
	.cfi_restore 30
	.cfi_def_cfa 31, 0
	ret
	.cfi_endproc
.LFE2832:
	.size	frame_done_callback, .-frame_done_callback
	.align	2
	.p2align 3,,7
	.type	ebc_frame_timeout, %function
ebc_frame_timeout:
.LFB2840:
	.loc 1 2185 0
	.cfi_startproc
.LVL275:
	stp	x29, x30, [sp, -16]!
	.cfi_def_cfa_offset 16
	.cfi_offset 29, -16
	.cfi_offset 30, -8
	add	x29, sp, 0
	.cfi_def_cfa_register 29
	.loc 1 2186 0
	bl	frame_done_callback
.LVL276:
	.loc 1 2188 0
	ldp	x29, x30, [sp], 16
	.cfi_restore 30
	.cfi_restore 29
	.cfi_def_cfa 31, 0
	ret
	.cfi_endproc
.LFE2840:
	.size	ebc_frame_timeout, .-ebc_frame_timeout
	.align	2
	.p2align 3,,7
	.type	ebc_lut_update, %function
ebc_lut_update:
.LFB2833:
	.loc 1 1647 0
	.cfi_startproc
.LVL277:
	stp	x29, x30, [sp, -80]!
	.cfi_def_cfa_offset 80
	.cfi_offset 29, -80
	.cfi_offset 30, -72
	.loc 1 1649 0
	mov	w4, 25
	.loc 1 1647 0
	add	x29, sp, 0
	.cfi_def_cfa_register 29
	stp	x21, x22, [sp, 32]
	.cfi_offset 21, -48
	.cfi_offset 22, -40
	mov	x21, x0
	stp	x19, x20, [sp, 16]
	.loc 1 1649 0
	add	x0, x29, 80
.LVL278:
	.loc 1 1647 0
	str	x23, [sp, 48]
	.cfi_offset 19, -64
	.cfi_offset 20, -56
	.cfi_offset 23, -32
	.loc 1 1647 0
	adrp	x19, __stack_chk_guard
	add	x3, x19, :lo12:__stack_chk_guard
	mov	w23, w1
	.loc 1 1656 0
	ldr	x2, [x21, 16]
	.loc 1 1647 0
	ldr	x1, [x3]
	str	x1, [x29, 72]
	mov	x1,0
.LVL279:
	.loc 1 1649 0
	str	w4, [x0, -12]!
.LVL280:
.LBB1230:
.LBB1231:
	.loc 3 50 0
	mov	x1, x0
	mov	x0, x2
	ldr	x2, [x2, 56]
	blr	x2
.LVL281:
	mov	w20, w0
.LBE1231:
.LBE1230:
	.loc 1 1657 0
	cbnz	w0, .L336
.LVL282:
	.loc 1 1658 0
	ldr	w2, [x29, 68]
	.loc 1 1659 0
	add	x22, x21, 184
	.loc 1 1658 0
	tbnz	w2, #31, .L360
	.loc 1 1662 0
	cmp	w2, 50
	bgt	.L361
.L338:
	.loc 1 1670 0
	ldr	x0, [x22, 104]
	adrp	x1, .LC13
	add	x1, x1, :lo12:.LC13
	bl	_dev_info
.LVL283:
	.loc 1 1673 0
	ldr	x0, [x22, 224]
	ldr	w0, [x0, 40]
	cmp	w0, 23
	bls	.L362
	.loc 1 1732 0
	ldr	w2, [x29, 68]
	mov	w3, w23
.L359:
	mov	w1, 7
	add	x0, x21, 296
	bl	epd_lut_get
.LVL284:
	cbnz	w0, .L351
	.p2align 2
.L354:
	.loc 1 1737 0
	cbnz	w20, .L352
.L335:
	.loc 1 1743 0
	add	x19, x19, :lo12:__stack_chk_guard
	mov	w0, w20
	ldr	x2, [x29, 72]
	ldr	x1, [x19]
	eor	x1, x2, x1
	cbnz	x1, .L363
	ldp	x19, x20, [sp, 16]
	ldp	x21, x22, [sp, 32]
.LVL285:
	ldr	x23, [sp, 48]
.LVL286:
	ldp	x29, x30, [sp], 80
	.cfi_remember_state
	.cfi_restore 30
	.cfi_restore 29
	.cfi_restore 23
	.cfi_restore 21
	.cfi_restore 22
	.cfi_restore 19
	.cfi_restore 20
	.cfi_def_cfa 31, 0
	ret
.LVL287:
	.p2align 3
.L362:
	.cfi_restore_state
	.loc 1 1673 0
	adrp	x1, .L341
	.loc 1 1675 0
	mov	w3, w23
	.loc 1 1673 0
	add	x1, x1, :lo12:.L341
	.loc 1 1675 0
	ldr	w2, [x29, 68]
	.loc 1 1673 0
	ldrb	w0, [x1,w0,uxtw]
	adr	x1, .Lrtx341
	add	x0, x1, w0, sxtb #2
	br	x0
.Lrtx341:
	.section	.rodata
	.align	0
	.align	2
.L341:
	.byte	(.L359 - .Lrtx341) / 4
	.byte	(.L342 - .Lrtx341) / 4
	.byte	(.L359 - .Lrtx341) / 4
	.byte	(.L343 - .Lrtx341) / 4
	.byte	(.L344 - .Lrtx341) / 4
	.byte	(.L345 - .Lrtx341) / 4
	.byte	(.L346 - .Lrtx341) / 4
	.byte	(.L359 - .Lrtx341) / 4
	.byte	(.L343 - .Lrtx341) / 4
	.byte	(.L344 - .Lrtx341) / 4
	.byte	(.L345 - .Lrtx341) / 4
	.byte	(.L346 - .Lrtx341) / 4
	.byte	(.L347 - .Lrtx341) / 4
	.byte	(.L347 - .Lrtx341) / 4
	.byte	(.L348 - .Lrtx341) / 4
	.byte	(.L349 - .Lrtx341) / 4
	.byte	(.L348 - .Lrtx341) / 4
	.byte	(.L350 - .Lrtx341) / 4
	.byte	(.L359 - .Lrtx341) / 4
	.byte	(.L359 - .Lrtx341) / 4
	.byte	(.L359 - .Lrtx341) / 4
	.byte	(.L359 - .Lrtx341) / 4
	.byte	(.L348 - .Lrtx341) / 4
	.byte	(.L349 - .Lrtx341) / 4
	.text
.LVL288:
	.p2align 3
.L336:
	.loc 1 1668 0
	add	x22, x21, 184
	mov	w2, w0
	adrp	x1, .LC12
	add	x1, x1, :lo12:.LC12
	ldr	x0, [x22, 104]
	bl	_dev_err
.LVL289:
	ldr	w2, [x29, 68]
	b	.L338
	.p2align 3
.L361:
	.loc 1 1663 0
	ldr	x0, [x22, 104]
	adrp	x1, .LC11
	add	x1, x1, :lo12:.LC11
	bl	_dev_info
.LVL290:
	.loc 1 1664 0
	mov	w2, 50
	str	w2, [x29, 68]
.LVL291:
	b	.L338
	.p2align 3
.L350:
	.loc 1 1675 0
	mov	w1, 1
	add	x0, x21, 296
	bl	epd_lut_get
.LVL292:
	cbz	w0, .L354
	.p2align 2
.L351:
	.loc 1 1664 0
	mov	w20, -1
.L352:
	.loc 1 1738 0
	ldr	x0, [x22, 104]
	adrp	x1, .LC14
	add	x1, x1, :lo12:.LC14
	bl	_dev_err
.LVL293:
	.loc 1 1739 0
	b	.L335
	.p2align 3
.L344:
	.loc 1 1718 0
	mov	w1, 9
	add	x0, x21, 296
	bl	epd_lut_get
.LVL294:
	cbnz	w0, .L351
	b	.L354
	.p2align 3
.L345:
	.loc 1 1723 0
	mov	w1, 10
	add	x0, x21, 296
	bl	epd_lut_get
.LVL295:
	cbnz	w0, .L351
	b	.L354
	.p2align 3
.L342:
	.loc 1 1690 0
	mov	w1, 5
	add	x0, x21, 296
	bl	epd_lut_get
.LVL296:
	cbnz	w0, .L351
	b	.L354
	.p2align 3
.L343:
	.loc 1 1713 0
	mov	w1, 8
	add	x0, x21, 296
	bl	epd_lut_get
.LVL297:
	cbnz	w0, .L351
	b	.L354
	.p2align 3
.L346:
	.loc 1 1728 0
	mov	w1, 11
	add	x0, x21, 296
	bl	epd_lut_get
.LVL298:
	cbnz	w0, .L351
	b	.L354
	.p2align 3
.L347:
	.loc 1 1697 0
	mov	w1, 6
	add	x0, x21, 296
	bl	epd_lut_get
.LVL299:
	cbnz	w0, .L351
	b	.L354
	.p2align 3
.L348:
	.loc 1 1703 0
	mov	w1, 4
	add	x0, x21, 296
	bl	epd_lut_get
.LVL300:
	cbnz	w0, .L351
	b	.L354
	.p2align 3
.L349:
	.loc 1 1708 0
	mov	w1, 3
	add	x0, x21, 296
	bl	epd_lut_get
.LVL301:
	cbnz	w0, .L351
	b	.L354
	.p2align 3
.L360:
	.loc 1 1659 0
	ldr	x0, [x22, 104]
	adrp	x1, .LC10
	add	x1, x1, :lo12:.LC10
	bl	_dev_info
.LVL302:
	.loc 1 1660 0
	str	wzr, [x29, 68]
	mov	w2, 0
	b	.L338
.L363:
	.loc 1 1743 0
	bl	__stack_chk_fail
.LVL303:
	.cfi_endproc
.LFE2833:
	.size	ebc_lut_update, .-ebc_lut_update
	.align	2
	.p2align 3,,7
	.type	ebc_buf_state_read, %function
ebc_buf_state_read:
.LFB2854:
	.loc 1 2627 0
	.cfi_startproc
.LVL304:
	stp	x29, x30, [sp, -16]!
	.cfi_def_cfa_offset 16
	.cfi_offset 29, -16
	.cfi_offset 30, -8
	.loc 1 2628 0
	mov	x0, x2
.LVL305:
	.loc 1 2627 0
	add	x29, sp, 0
	.cfi_def_cfa_register 29
	.loc 1 2628 0
	bl	ebc_buf_state_show
.LVL306:
	.loc 1 2629 0
	sxtw	x0, w0
	ldp	x29, x30, [sp], 16
	.cfi_restore 30
	.cfi_restore 29
	.cfi_def_cfa 31, 0
	ret
	.cfi_endproc
.LFE2854:
	.size	ebc_buf_state_read, .-ebc_buf_state_read
	.align	2
	.p2align 3,,7
	.type	ebc_state_read, %function
ebc_state_read:
.LFB2853:
	.loc 1 2618 0
	.cfi_startproc
.LVL307:
	stp	x29, x30, [sp, -16]!
	.cfi_def_cfa_offset 16
	.cfi_offset 29, -16
	.cfi_offset 30, -8
	.loc 1 2619 0
	adrp	x3, .LANCHOR0
	.loc 1 2618 0
	mov	x0, x2
.LVL308:
	.loc 1 2619 0
	adrp	x1, .LC15
.LVL309:
	.loc 1 2618 0
	add	x29, sp, 0
	.cfi_def_cfa_register 29
	.loc 1 2619 0
	ldr	x2, [x3, #:lo12:.LANCHOR0]
.LVL310:
	add	x1, x1, :lo12:.LC15
	ldr	w2, [x2, 624]
	bl	sprintf
.LVL311:
	.loc 1 2620 0
	sxtw	x0, w0
	ldp	x29, x30, [sp], 16
	.cfi_restore 30
	.cfi_restore 29
	.cfi_def_cfa 31, 0
	ret
	.cfi_endproc
.LFE2853:
	.size	ebc_state_read, .-ebc_state_read
	.align	2
	.p2align 3,,7
	.type	ebc_version_read, %function
ebc_version_read:
.LFB2852:
	.loc 1 2609 0
	.cfi_startproc
.LVL312:
	stp	x29, x30, [sp, -16]!
	.cfi_def_cfa_offset 16
	.cfi_offset 29, -16
	.cfi_offset 30, -8
	mov	x0, x2
.LVL313:
	.loc 1 2610 0
	adrp	x1, .LC17
.LVL314:
	adrp	x2, .LC16
.LVL315:
	.loc 1 2609 0
	add	x29, sp, 0
	.cfi_def_cfa_register 29
	.loc 1 2610 0
	add	x2, x2, :lo12:.LC16
	.loc 1 2609 0
	.loc 1 2610 0
	add	x1, x1, :lo12:.LC17
	bl	sprintf
.LVL316:
	.loc 1 2611 0
	sxtw	x0, w0
	ldp	x29, x30, [sp], 16
	.cfi_restore 30
	.cfi_restore 29
	.cfi_def_cfa 31, 0
	ret
	.cfi_endproc
.LFE2852:
	.size	ebc_version_read, .-ebc_version_read
	.align	2
	.p2align 3,,7
	.type	pmic_vcom_read, %function
pmic_vcom_read:
.LFB2850:
	.loc 1 2573 0
	.cfi_startproc
.LVL317:
	stp	x29, x30, [sp, -32]!
	.cfi_def_cfa_offset 32
	.cfi_offset 29, -32
	.cfi_offset 30, -24
	.loc 1 2574 0
	adrp	x0, .LANCHOR0
.LVL318:
	.loc 1 2573 0
	add	x29, sp, 0
	.cfi_def_cfa_register 29
	.loc 1 2577 0
	ldr	x0, [x0, #:lo12:.LANCHOR0]
	.loc 1 2573 0
	str	x19, [sp, 16]
	.cfi_offset 19, -16
	.loc 1 2573 0
	mov	x19, x2
	.loc 1 2577 0
	ldr	x1, [x0, 16]
.LVL319:
.LBB1232:
.LBB1233:
	.loc 3 55 0
	mov	x0, x1
	ldr	x1, [x1, 64]
	blr	x1
.LVL320:
.LBE1233:
.LBE1232:
	.loc 1 2579 0
	mov	w2, w0
	adrp	x1, .LC15
	mov	x0, x19
	add	x1, x1, :lo12:.LC15
	bl	sprintf
.LVL321:
	.loc 1 2580 0
	sxtw	x0, w0
	ldr	x19, [sp, 16]
.LVL322:
	ldp	x29, x30, [sp], 32
	.cfi_restore 30
	.cfi_restore 29
	.cfi_restore 19
	.cfi_def_cfa 31, 0
	ret
	.cfi_endproc
.LFE2850:
	.size	pmic_vcom_read, .-pmic_vcom_read
	.align	2
	.p2align 3,,7
	.type	pmic_temp_read, %function
pmic_temp_read:
.LFB2849:
	.loc 1 2559 0
	.cfi_startproc
.LVL323:
	stp	x29, x30, [sp, -48]!
	.cfi_def_cfa_offset 48
	.cfi_offset 29, -48
	.cfi_offset 30, -40
	.loc 1 2560 0
	adrp	x0, .LANCHOR0
.LVL324:
	.loc 1 2559 0
	add	x29, sp, 0
	.cfi_def_cfa_register 29
	.loc 1 2563 0
	ldr	x0, [x0, #:lo12:.LANCHOR0]
.LBB1234:
.LBB1235:
	.loc 3 50 0
	add	x1, x29, 36
.LVL325:
.LBE1235:
.LBE1234:
	.loc 1 2559 0
	stp	x19, x20, [sp, 16]
	.cfi_offset 19, -32
	.cfi_offset 20, -24
	.loc 1 2559 0
	adrp	x19, __stack_chk_guard
	add	x19, x19, :lo12:__stack_chk_guard
	mov	x20, x2
	ldr	x2, [x19]
	str	x2, [x29, 40]
	mov	x2,0
.LVL326:
	.loc 1 2563 0
	ldr	x2, [x0, 16]
.LBB1237:
.LBB1236:
	.loc 3 50 0
	mov	x0, x2
	ldr	x2, [x2, 56]
	blr	x2
.LVL327:
.LBE1236:
.LBE1237:
	.loc 1 2565 0
	ldr	w2, [x29, 36]
	adrp	x1, .LC15
	mov	x0, x20
	add	x1, x1, :lo12:.LC15
	bl	sprintf
.LVL328:
	.loc 1 2566 0
	ldr	x2, [x29, 40]
	ldr	x1, [x19]
	eor	x1, x2, x1
	cbnz	x1, .L375
	ldp	x19, x20, [sp, 16]
.LVL329:
	sxtw	x0, w0
	ldp	x29, x30, [sp], 48
	.cfi_remember_state
	.cfi_restore 30
	.cfi_restore 29
	.cfi_restore 19
	.cfi_restore 20
	.cfi_def_cfa 31, 0
	ret
.LVL330:
.L375:
	.cfi_restore_state
	bl	__stack_chk_fail
.LVL331:
	.cfi_endproc
.LFE2849:
	.size	pmic_temp_read, .-pmic_temp_read
	.align	2
	.p2align 3,,7
	.type	pmic_name_read, %function
pmic_name_read:
.LFB2848:
	.loc 1 2548 0
	.cfi_startproc
.LVL332:
	stp	x29, x30, [sp, -16]!
	.cfi_def_cfa_offset 16
	.cfi_offset 29, -16
	.cfi_offset 30, -8
	.loc 1 2549 0
	adrp	x3, .LANCHOR0
	.loc 1 2548 0
	mov	x0, x2
.LVL333:
	.loc 1 2551 0
	adrp	x1, .LC17
.LVL334:
	.loc 1 2548 0
	add	x29, sp, 0
	.cfi_def_cfa_register 29
	.loc 1 2551 0
	ldr	x2, [x3, #:lo12:.LANCHOR0]
.LVL335:
	add	x1, x1, :lo12:.LC17
	ldr	x2, [x2, 16]
	add	x2, x2, 8
	bl	sprintf
.LVL336:
	.loc 1 2552 0
	sxtw	x0, w0
	ldp	x29, x30, [sp], 16
	.cfi_restore 30
	.cfi_restore 29
	.cfi_def_cfa 31, 0
	ret
	.cfi_endproc
.LFE2848:
	.size	pmic_name_read, .-pmic_name_read
	.align	2
	.p2align 3,,7
	.type	pmic_vcom_write, %function
pmic_vcom_write:
.LFB2851:
	.loc 1 2585 0
	.cfi_startproc
.LVL337:
	stp	x29, x30, [sp, -64]!
	.cfi_def_cfa_offset 64
	.cfi_offset 29, -64
	.cfi_offset 30, -56
	.loc 1 2586 0
	adrp	x0, .LANCHOR0
.LVL338:
	.loc 1 2585 0
	add	x29, sp, 0
	.cfi_def_cfa_register 29
	stp	x19, x20, [sp, 16]
	.cfi_offset 19, -48
	.cfi_offset 20, -40
	adrp	x19, __stack_chk_guard
	stp	x21, x22, [sp, 32]
	.cfi_offset 21, -32
	.cfi_offset 22, -24
	.loc 1 2585 0
	add	x1, x19, :lo12:__stack_chk_guard
.LVL339:
	mov	x21, x2
	.loc 1 2586 0
	ldr	x22, [x0, #:lo12:.LANCHOR0]
.LVL340:
	.loc 1 2585 0
	ldr	x2, [x1]
	str	x2, [x29, 56]
	mov	x2,0
.LVL341:
	mov	x20, x3
	.loc 1 2589 0
	add	x2, x29, 52
	mov	w1, 0
	mov	x0, x21
	bl	kstrtouint
.LVL342:
	.loc 1 2590 0
	cbnz	w0, .L385
.LVL343:
	.loc 1 2594 0
	ldr	w1, [x29, 52]
	ldr	x0, [x22, 16]
	bl	ebc_pmic_set_vcom
.LVL344:
	.loc 1 2595 0
	cbnz	w0, .L386
.L378:
	.loc 1 2601 0
	add	x19, x19, :lo12:__stack_chk_guard
	mov	x0, x20
.LVL345:
	ldr	x2, [x29, 56]
	ldr	x1, [x19]
	eor	x1, x2, x1
	cbnz	x1, .L387
	ldp	x19, x20, [sp, 16]
	ldp	x21, x22, [sp, 32]
.LVL346:
	ldp	x29, x30, [sp], 64
	.cfi_remember_state
	.cfi_restore 30
	.cfi_restore 29
	.cfi_restore 21
	.cfi_restore 22
	.cfi_restore 19
	.cfi_restore 20
	.cfi_def_cfa 31, 0
	ret
.LVL347:
	.p2align 3
.L385:
	.cfi_restore_state
	.loc 1 2591 0
	ldr	x0, [x22]
	adrp	x1, .LC18
	mov	x2, x21
	add	x1, x1, :lo12:.LC18
	.loc 1 2592 0
	mov	x20, -1
.LVL348:
	.loc 1 2591 0
	bl	_dev_err
.LVL349:
	.loc 1 2592 0
	b	.L378
.LVL350:
	.p2align 3
.L386:
	.loc 1 2596 0
	ldr	x0, [x22]
	adrp	x1, .LC19
	.loc 1 2597 0
	mov	x20, -1
.LVL351:
	.loc 1 2596 0
	add	x1, x1, :lo12:.LC19
	bl	_dev_err
.LVL352:
	.loc 1 2597 0
	b	.L378
.L387:
	.loc 1 2601 0
	bl	__stack_chk_fail
.LVL353:
	.cfi_endproc
.LFE2851:
	.size	pmic_vcom_write, .-pmic_vcom_write
	.align	2
	.p2align 3,,7
	.type	waveform_version_read, %function
waveform_version_read:
.LFB2847:
	.loc 1 2537 0
	.cfi_startproc
.LVL354:
	stp	x29, x30, [sp, -32]!
	.cfi_def_cfa_offset 32
	.cfi_offset 29, -32
	.cfi_offset 30, -24
	add	x29, sp, 0
	.cfi_def_cfa_register 29
	str	x19, [sp, 16]
	.cfi_offset 19, -16
	.loc 1 2537 0
	mov	x19, x2
	.loc 1 2538 0
	bl	epd_lut_get_wf_version
.LVL355:
	.loc 1 2540 0
	mov	x2, x0
	adrp	x1, .LC17
	mov	x0, x19
	add	x1, x1, :lo12:.LC17
	bl	sprintf
.LVL356:
	.loc 1 2541 0
	sxtw	x0, w0
	ldr	x19, [sp, 16]
.LVL357:
	ldp	x29, x30, [sp], 32
	.cfi_restore 30
	.cfi_restore 29
	.cfi_restore 19
	.cfi_def_cfa 31, 0
	ret
	.cfi_endproc
.LFE2847:
	.size	waveform_version_read, .-waveform_version_read
	.section	.init.text,"ax",@progbits
	.align	2
	.type	ebc_init, %function
ebc_init:
.LFB2865:
	.loc 1 3082 0
	.cfi_startproc
	stp	x29, x30, [sp, -16]!
	.cfi_def_cfa_offset 16
	.cfi_offset 29, -16
	.cfi_offset 30, -8
	.loc 1 3083 0
	mov	x1, 0
	adrp	x0, .LANCHOR1
	add	x0, x0, :lo12:.LANCHOR1
	.loc 1 3082 0
	add	x29, sp, 0
	.cfi_def_cfa_register 29
	.loc 1 3083 0
	bl	__platform_driver_register
.LVL358:
	.loc 1 3084 0
	ldp	x29, x30, [sp], 16
	.cfi_restore 30
	.cfi_restore 29
	.cfi_def_cfa 31, 0
	ret
	.cfi_endproc
.LFE2865:
	.size	ebc_init, .-ebc_init
	.text
	.align	2
	.p2align 3,,7
	.type	direct_mode_data_change, %function
direct_mode_data_change:
.LFB2821:
	.loc 1 1087 0
	.cfi_startproc
.LVL359:
	stp	x29, x30, [sp, -48]!
	.cfi_def_cfa_offset 48
	.cfi_offset 29, -48
	.cfi_offset 30, -40
	add	x29, sp, 0
	.cfi_def_cfa_register 29
	stp	x19, x20, [sp, 16]
	stp	x21, x22, [sp, 32]
	.cfi_offset 19, -32
	.cfi_offset 20, -24
	.cfi_offset 21, -16
	.cfi_offset 22, -8
	.loc 1 1088 0
	ldr	x4, [x3, 224]
	ldr	w4, [x4, 64]
	cmp	w4, 32
	beq	.L444
	.loc 1 1091 0
	cmp	w4, 16
	beq	.L445
.L401:
.LBB1264:
.LBB1265:
	.loc 1 1017 0
	adrp	x6, .LANCHOR0
	.loc 1 1023 0
	ldrb	w5, [x3, 48]
	ldr	w4, [x3, 56]
	.loc 1 1017 0
	ldr	x11, [x6, #:lo12:.LANCHOR0]
	.loc 1 1024 0
	ldr	x3, [x3, 128]
.LVL360:
	.loc 1 1023 0
	sub	w5, w5, w4
.LVL361:
	.loc 1 1025 0
	add	x11, x11, 24
	.loc 1 1024 0
	lsl	w5, w5, 16
.LVL362:
	add	x5, x3, x5, sxtw
.LVL363:
	.loc 1 1028 0
	ldr	w14, [x11, 88]
	.loc 1 1027 0
	ldr	w3, [x11, 84]
	.loc 1 1025 0
	ldr	w15, [x11, 156]
.LVL364:
	.loc 1 1030 0
	cmp	w14, 0
	.loc 1 1027 0
	lsr	w13, w3, 3
	.loc 1 1030 0
	ble	.L392
	sub	w12, w13, #1
	mov	w10, 0
.LVL365:
	add	x12, x12, 1
	lsl	x16, x12, 2
	lsl	x12, x12, 3
	.loc 1 1031 0
	cbz	w15, .L418
.LVL366:
	.p2align 2
.L446:
	.loc 1 1032 0
	ldr	w7, [x11, 88]
.LVL367:
	sub	w7, w7, #1
	sub	w7, w7, w10
	mul	w7, w7, w3
	lsr	w7, w7, 2
	add	x7, x0, x7
.LVL368:
.L419:
	.loc 1 1036 0
	cbz	w13, .L420
	add	x9, x1, x16
	mov	x8, x2
	.p2align 2
.L421:
	.loc 1 1037 0
	ldr	w3, [x1], 4
	.loc 1 1038 0
	ldr	w4, [x8], 8
.LVL369:
	.loc 1 1043 0
	and	w20, w3, 15
	.loc 1 1036 0
	cmp	x1, x9
	.loc 1 1047 0
	ubfx	x19, x3, 4, 4
	.loc 1 1051 0
	ubfx	x18, x3, 8, 4
	.loc 1 1047 0
	ubfx	x6, x4, 12, 4
	.loc 1 1051 0
	ubfx	x17, x4, 20, 4
	.loc 1 1047 0
	add	w6, w19, w6, lsl 8
	.loc 1 1051 0
	add	w17, w18, w17, lsl 8
	.loc 1 1055 0
	ubfx	x19, x3, 12, 4
	.loc 1 1043 0
	ubfx	x18, x4, 4, 4
	.loc 1 1054 0
	lsr	w4, w4, 28
	.loc 1 1043 0
	add	w18, w20, w18, lsl 8
	.loc 1 1055 0
	add	w4, w19, w4, lsl 8
	.loc 1 1047 0
	ldrb	w6, [x5, w6, sxtw]
	.loc 1 1051 0
	ldrb	w17, [x5, w17, sxtw]
	.loc 1 1068 0
	ubfx	x22, x3, 20, 4
	.loc 1 1043 0
	ldrb	w19, [x5, w18, sxtw]
	.loc 1 1072 0
	ubfx	x21, x3, 24, 4
	.loc 1 1055 0
	ldrb	w30, [x5, w4, sxtw]
	.loc 1 1047 0
	ubfiz	w4, w6, 2, 2
	.loc 1 1043 0
	and	w19, w19, 3
	.loc 1 1051 0
	ubfiz	w6, w17, 4, 2
	.loc 1 1055 0
	orr	w4, w4, w6
	.loc 1 1064 0
	ubfx	x20, x3, 16, 4
	.loc 1 1055 0
	orr	w30, w19, w30, lsl 6
	.loc 1 1074 0
	lsr	w3, w3, 28
.LVL370:
	.loc 1 1055 0
	orr	w4, w4, w30
	.loc 1 1057 0
	strb	w4, [x7], 2
	.loc 1 1059 0
	ldr	w4, [x8, -4]
	.loc 1 1068 0
	ubfx	x18, x4, 12, 4
	.loc 1 1072 0
	ubfx	x17, x4, 20, 4
	.loc 1 1068 0
	add	w18, w22, w18, lsl 8
	.loc 1 1072 0
	add	w17, w21, w17, lsl 8
	.loc 1 1064 0
	ubfx	x6, x4, 4, 4
	.loc 1 1075 0
	lsr	w4, w4, 28
	.loc 1 1076 0
	add	w3, w3, w4, lsl 8
	.loc 1 1064 0
	add	w6, w20, w6, lsl 8
	.loc 1 1068 0
	ldrb	w4, [x5, w18, sxtw]
	.loc 1 1072 0
	ldrb	w18, [x5, w17, sxtw]
	.loc 1 1064 0
	ldrb	w17, [x5, w6, sxtw]
	.loc 1 1076 0
	ldrb	w6, [x5, w3, sxtw]
	.loc 1 1068 0
	ubfiz	w3, w4, 2, 2
	.loc 1 1072 0
	ubfiz	w18, w18, 4, 2
	.loc 1 1064 0
	and	w4, w17, 3
	.loc 1 1076 0
	orr	w3, w3, w18
	orr	w4, w4, w6, lsl 6
	orr	w3, w3, w4
	.loc 1 1078 0
	strb	w3, [x7, -1]
	.loc 1 1036 0
	bne	.L421
	add	x2, x2, x12
.L420:
	.loc 1 1030 0
	add	w10, w10, 1
	cmp	w14, w10
	beq	.L392
	ldr	w3, [x11, 84]
	.loc 1 1031 0
	cbnz	w15, .L446
.L418:
	.loc 1 1034 0
	mul	w7, w10, w3
.LVL371:
	lsr	w7, w7, 2
	add	x7, x0, x7
.LVL372:
	b	.L419
.LVL373:
	.p2align 3
.L392:
.LBE1265:
.LBE1264:
	.loc 1 1103 0
	ldp	x19, x20, [sp, 16]
	ldp	x21, x22, [sp, 32]
	ldp	x29, x30, [sp], 48
	.cfi_remember_state
	.cfi_restore 30
	.cfi_restore 29
	.cfi_restore 21
	.cfi_restore 22
	.cfi_restore 19
	.cfi_restore 20
	.cfi_def_cfa 31, 0
	ret
.LVL374:
.L445:
	.cfi_restore_state
	.loc 1 1092 0
	ldr	x4, [x3, 216]
	ldr	w4, [x4, 64]
	cmp	w4, 16
	bne	.L401
	.loc 1 1093 0
	ldr	w13, [x3, 88]
.LVL375:
	cbz	w13, .L402
.LBB1266:
.LBB1267:
	.loc 1 831 0
	adrp	x6, .LANCHOR0
	.loc 1 837 0
	ldrb	w5, [x3, 48]
	ldr	w4, [x3, 56]
	.loc 1 831 0
	ldr	x12, [x6, #:lo12:.LANCHOR0]
	.loc 1 838 0
	ldr	x3, [x3, 128]
.LVL376:
	.loc 1 837 0
	sub	w5, w5, w4
.LVL377:
	.loc 1 839 0
	add	x12, x12, 24
	.loc 1 838 0
	lsl	w5, w5, 16
.LVL378:
	add	x5, x3, x5, sxtw
.LVL379:
	.loc 1 842 0
	ldr	w14, [x12, 88]
	.loc 1 841 0
	ldr	w3, [x12, 84]
	.loc 1 839 0
	ldr	w15, [x12, 156]
.LVL380:
	.loc 1 847 0
	cmp	w14, 0
	.loc 1 841 0
	lsr	w13, w3, 4
.LVL381:
	.loc 1 847 0
	ble	.L392
	sub	w11, w13, #1
	mov	w16, 0
.LVL382:
	add	x11, x11, 1
	lsl	x11, x11, 3
	.loc 1 848 0
	cbz	w15, .L403
.LVL383:
.L447:
	.loc 1 849 0
	ldr	w6, [x12, 88]
.LVL384:
	sub	w6, w6, #1
	sub	w6, w6, w16
	mul	w6, w6, w3
	lsr	w6, w6, 2
	add	x6, x0, x6
.LVL385:
.L404:
	.loc 1 853 0
	cbz	w13, .L405
	mov	x7, 0
	.p2align 2
.L406:
	.loc 1 855 0
	ldr	x4, [x2, x7]
.LVL386:
	add	x6, x6, 4
	.loc 1 854 0
	ldr	x3, [x1, x7]
.LVL387:
	add	x7, x7, 8
	.loc 1 857 0
	and	w9, w4, 65535
	.loc 1 853 0
	cmp	x11, x7
	.loc 1 857 0
	and	w8, w3, 65535
.LBB1268:
.LBB1269:
	.loc 1 133 0
	ubfiz	w19, w9, 8, 8
	.loc 1 134 0
	and	w9, w9, 65280
	.loc 1 133 0
	add	w19, w19, w8, uxtb
	.loc 1 134 0
	add	w9, w9, w8, lsr 8
.LBE1269:
.LBE1268:
	.loc 1 858 0
	lsr	w10, w4, 16
	lsr	w8, w3, 16
.LBB1273:
.LBB1274:
	.loc 1 133 0
	ubfiz	w18, w10, 8, 8
.LBE1274:
.LBE1273:
.LBB1280:
.LBB1270:
	ldrb	w19, [x5, w19, sxtw]
.LBE1270:
.LBE1280:
.LBB1281:
.LBB1275:
	.loc 1 134 0
	and	w10, w10, 65280
.LBE1275:
.LBE1281:
.LBB1282:
.LBB1271:
	ldrb	w17, [x5, w9, sxtw]
.LBE1271:
.LBE1282:
.LBB1283:
.LBB1276:
	.loc 1 133 0
	add	w18, w18, w8, uxtb
	.loc 1 134 0
	add	w10, w10, w8, lsr 8
.LBE1276:
.LBE1283:
	.loc 1 859 0
	ubfx	x9, x4, 32, 16
	ubfx	x8, x3, 32, 16
	.loc 1 860 0
	lsr	x4, x4, 48
.LVL388:
.LBB1284:
.LBB1272:
	.loc 1 133 0
	orr	w17, w19, w17, lsl 4
.LBE1272:
.LBE1284:
	.loc 1 857 0
	strb	w17, [x6, -4]
.LBB1285:
.LBB1286:
	.loc 1 133 0
	ubfiz	w17, w9, 8, 8
	.loc 1 134 0
	and	w9, w9, 65280
.LBE1286:
.LBE1285:
.LBB1292:
.LBB1277:
	ldrb	w10, [x5, w10, sxtw]
.LBE1277:
.LBE1292:
.LBB1293:
.LBB1287:
	.loc 1 133 0
	add	w17, w17, w8, uxtb
.LBE1287:
.LBE1293:
.LBB1294:
.LBB1278:
	ldrb	w18, [x5, w18, sxtw]
.LBE1278:
.LBE1294:
.LBB1295:
.LBB1288:
	.loc 1 134 0
	add	w8, w9, w8, lsr 8
.LBE1288:
.LBE1295:
	.loc 1 860 0
	lsr	x3, x3, 48
.LVL389:
.LBB1296:
.LBB1279:
	.loc 1 133 0
	orr	w9, w18, w10, lsl 4
.LBE1279:
.LBE1296:
	.loc 1 858 0
	strb	w9, [x6, -3]
.LBB1297:
.LBB1298:
	.loc 1 133 0
	ubfiz	w9, w4, 8, 8
	.loc 1 134 0
	and	w4, w4, 65280
.LBE1298:
.LBE1297:
.LBB1302:
.LBB1289:
	ldrb	w10, [x5, w8, sxtw]
.LBE1289:
.LBE1302:
.LBB1303:
.LBB1299:
	.loc 1 133 0
	add	w8, w9, w3, uxtb
.LBE1299:
.LBE1303:
.LBB1304:
.LBB1290:
	ldrb	w17, [x5, w17, sxtw]
.LBE1290:
.LBE1304:
.LBB1305:
.LBB1300:
	.loc 1 134 0
	add	w3, w4, w3, lsr 8
.LBE1300:
.LBE1305:
.LBB1306:
.LBB1291:
	.loc 1 133 0
	orr	w4, w17, w10, lsl 4
.LBE1291:
.LBE1306:
	.loc 1 859 0
	strb	w4, [x6, -2]
.LBB1307:
.LBB1301:
	.loc 1 134 0
	ldrb	w3, [x5, w3, sxtw]
	.loc 1 133 0
	ldrb	w4, [x5, w8, sxtw]
	orr	w3, w4, w3, lsl 4
.LBE1301:
.LBE1307:
	.loc 1 860 0
	strb	w3, [x6, -1]
	.loc 1 853 0
	bne	.L406
	add	x1, x1, x11
.LVL390:
	add	x2, x2, x11
.LVL391:
.L405:
	.loc 1 847 0
	add	w16, w16, 1
	cmp	w14, w16
	beq	.L392
	ldr	w3, [x12, 84]
	.loc 1 848 0
	cbnz	w15, .L447
.L403:
	.loc 1 851 0
	mul	w6, w16, w3
.LVL392:
	lsr	w6, w6, 2
	add	x6, x0, x6
.LVL393:
	b	.L404
.LVL394:
.L444:
.LBE1267:
.LBE1266:
	.loc 1 1089 0
	ldr	x4, [x3, 216]
	ldr	w4, [x4, 64]
	cmp	w4, 32
	beq	.L448
	.loc 1 1098 0
	cmp	w4, 16
	bne	.L401
.LBB1308:
.LBB1309:
	.loc 1 947 0
	adrp	x6, .LANCHOR0
	.loc 1 953 0
	ldrb	w5, [x3, 48]
	ldr	w4, [x3, 56]
	.loc 1 947 0
	ldr	x11, [x6, #:lo12:.LANCHOR0]
	.loc 1 954 0
	ldr	x3, [x3, 128]
.LVL395:
	.loc 1 953 0
	sub	w5, w5, w4
.LVL396:
	.loc 1 955 0
	add	x11, x11, 24
	.loc 1 954 0
	lsl	w5, w5, 16
.LVL397:
	add	x5, x3, x5, sxtw
.LVL398:
	.loc 1 958 0
	ldr	w14, [x11, 88]
	.loc 1 957 0
	ldr	w3, [x11, 84]
	.loc 1 955 0
	ldr	w15, [x11, 156]
.LVL399:
	.loc 1 960 0
	cmp	w14, 0
	.loc 1 957 0
	lsr	w13, w3, 3
	.loc 1 960 0
	ble	.L392
	sub	w12, w13, #1
	mov	w10, 0
.LVL400:
	add	x12, x12, 1
	lsl	x16, x12, 3
	lsl	x12, x12, 2
	.loc 1 961 0
	cbz	w15, .L413
.LVL401:
.L449:
	.loc 1 962 0
	ldr	w7, [x11, 88]
.LVL402:
	sub	w7, w7, #1
	sub	w7, w7, w10
	mul	w7, w7, w3
	lsr	w7, w7, 2
	add	x7, x0, x7
.LVL403:
.L414:
	.loc 1 966 0
	cbz	w13, .L415
	add	x9, x1, x16
	mov	x8, x2
	.p2align 2
.L416:
	.loc 1 967 0
	ldr	w6, [x1], 8
	.loc 1 968 0
	ldr	w3, [x8], 4
	.loc 1 966 0
	cmp	x1, x9
.LVL404:
	.loc 1 972 0
	and	w4, w3, 255
	.loc 1 975 0
	lsr	w22, w6, 8
	.loc 1 981 0
	lsl	w17, w3, 4
	.loc 1 979 0
	lsr	w21, w6, 16
	.loc 1 977 0
	and	w18, w4, 240
	and	w22, w22, 248
	.loc 1 983 0
	lsr	w20, w6, 24
	.loc 1 977 0
	add	w18, w22, w18, lsl 8
	.loc 1 985 0
	and	w19, w3, 61440
	.loc 1 981 0
	and	w21, w21, 248
	.loc 1 985 0
	and	w20, w20, 248
	.loc 1 973 0
	and	w6, w6, 248
	.loc 1 981 0
	and	w17, w17, 61440
	.loc 1 973 0
	ubfiz	w4, w4, 12, 4
	.loc 1 981 0
	add	w17, w17, w21
	.loc 1 973 0
	add	w4, w4, w6
	.loc 1 985 0
	add	w19, w19, w20
	.loc 1 977 0
	ldrb	w20, [x5, w18, sxtw]
	.loc 1 1002 0
	lsr	w22, w3, 12
	.loc 1 998 0
	lsr	w18, w3, 8
	.loc 1 985 0
	ldrb	w21, [x5, w4, sxtw]
	.loc 1 1006 0
	lsr	w4, w3, 16
	.loc 1 981 0
	ldrb	w6, [x5, w17, sxtw]
	.loc 1 977 0
	lsl	w20, w20, 2
	.loc 1 985 0
	ldrb	w19, [x5, w19, sxtw]
	.loc 1 1002 0
	and	w17, w22, 61440
	.loc 1 994 0
	lsr	w3, w3, 4
	.loc 1 998 0
	and	w18, w18, 61440
	.loc 1 985 0
	orr	w6, w20, w6, lsl 4
	.loc 1 994 0
	and	w3, w3, 61440
	.loc 1 985 0
	orr	w19, w21, w19, lsl 6
	orr	w6, w6, w19
	.loc 1 987 0
	strb	w6, [x7], 2
	.loc 1 1006 0
	and	w6, w4, 61440
	.loc 1 989 0
	ldr	w4, [x1, -4]
	.loc 1 994 0
	and	w21, w4, 248
	.loc 1 1000 0
	lsr	w20, w4, 16
	.loc 1 996 0
	lsr	w19, w4, 8
	.loc 1 1002 0
	and	w20, w20, 248
	.loc 1 1004 0
	lsr	w4, w4, 24
	.loc 1 998 0
	and	w19, w19, 248
	.loc 1 1002 0
	add	w17, w17, w20
	.loc 1 1006 0
	and	w4, w4, 248
	.loc 1 998 0
	add	w18, w18, w19
	.loc 1 1006 0
	add	w4, w6, w4
	.loc 1 994 0
	add	w3, w3, w21
	.loc 1 1002 0
	ldrb	w17, [x5, w17, sxtw]
	.loc 1 998 0
	ldrb	w6, [x5, w18, sxtw]
	.loc 1 1006 0
	ldrb	w4, [x5, w4, sxtw]
	ldrb	w18, [x5, w3, sxtw]
	.loc 1 1002 0
	lsl	w3, w17, 4
	.loc 1 1006 0
	orr	w3, w3, w6, lsl 2
	orr	w4, w18, w4, lsl 6
	orr	w3, w3, w4
	.loc 1 1008 0
	strb	w3, [x7, -1]
	.loc 1 966 0
	bne	.L416
	add	x2, x2, x12
.L415:
	.loc 1 960 0
	add	w10, w10, 1
	cmp	w14, w10
	beq	.L392
	ldr	w3, [x11, 84]
	.loc 1 961 0
	cbnz	w15, .L449
.L413:
	.loc 1 964 0
	mul	w7, w10, w3
.LVL405:
	lsr	w7, w7, 2
	add	x7, x0, x7
.LVL406:
	b	.L414
.LVL407:
.L402:
.LBE1309:
.LBE1308:
.LBB1310:
.LBB1311:
	.loc 1 871 0
	adrp	x5, .LANCHOR0
	.loc 1 877 0
	ldrb	w7, [x3, 48]
	ldr	w4, [x3, 56]
	.loc 1 871 0
	ldr	x15, [x5, #:lo12:.LANCHOR0]
	.loc 1 878 0
	ldr	x3, [x3, 128]
.LVL408:
	.loc 1 877 0
	sub	w7, w7, w4
.LVL409:
	.loc 1 879 0
	add	x15, x15, 24
	.loc 1 878 0
	lsl	w7, w7, 16
.LVL410:
	add	x7, x3, x7, sxtw
.LVL411:
	.loc 1 882 0
	ldr	w16, [x15, 88]
	.loc 1 881 0
	ldr	w3, [x15, 84]
	.loc 1 879 0
	ldr	w17, [x15, 156]
.LVL412:
	.loc 1 887 0
	cmp	w16, 0
	.loc 1 881 0
	lsr	w12, w3, 3
.LVL413:
	.loc 1 887 0
	ble	.L392
	sub	w14, w12, #1
	add	x14, x14, 1
	lsl	x14, x14, 2
	.loc 1 888 0
	cbz	w17, .L408
.LVL414:
.L450:
	.loc 1 889 0
	ldr	w10, [x15, 88]
.LVL415:
	sub	w10, w10, #1
	sub	w10, w10, w13
	mul	w10, w10, w3
	lsr	w10, w10, 2
	add	x10, x0, x10
.LVL416:
.L409:
	.loc 1 893 0
	cbz	w12, .L410
	mov	x5, 0
	.p2align 2
.L411:
	.loc 1 895 0
	ldr	w3, [x2, x5, lsl 2]
	.loc 1 894 0
	ldr	w4, [x1, x5, lsl 2]
	add	x5, x5, 1
.LVL417:
.LBB1312:
.LBB1313:
	.loc 1 134 0
	and	w9, w3, 65280
.LBE1313:
.LBE1312:
	.loc 1 893 0
	cmp	w12, w5
.LVL418:
	.loc 1 897 0
	and	w6, w4, 65535
.LBB1318:
.LBB1314:
	.loc 1 133 0
	ubfiz	w8, w3, 8, 8
	.loc 1 134 0
	add	w9, w9, w6, lsr 8
	.loc 1 133 0
	add	w6, w8, w6, uxtb
.LBE1314:
.LBE1318:
	.loc 1 898 0
	lsr	w3, w3, 16
.LVL419:
	lsr	w4, w4, 16
.LBB1319:
.LBB1320:
	.loc 1 133 0
	ubfiz	w8, w3, 8, 8
	.loc 1 134 0
	and	w3, w3, 65280
.LBE1320:
.LBE1319:
.LBB1324:
.LBB1315:
	.loc 1 133 0
	ldrb	w11, [x7, w6, sxtw]
.LBE1315:
.LBE1324:
.LBB1325:
.LBB1321:
	.loc 1 134 0
	add	w3, w3, w4, lsr 8
.LBE1321:
.LBE1325:
.LBB1326:
.LBB1316:
	ldrb	w9, [x7, w9, sxtw]
.LBE1316:
.LBE1326:
.LBB1327:
.LBB1322:
	.loc 1 133 0
	add	w6, w8, w4, uxtb
.LBE1322:
.LBE1327:
.LBB1328:
.LBB1317:
	orr	w4, w11, w9, lsl 4
.LBE1317:
.LBE1328:
	.loc 1 897 0
	strb	w4, [x10], 2
.LBB1329:
.LBB1323:
	.loc 1 134 0
	ldrb	w3, [x7, w3, sxtw]
	.loc 1 133 0
	ldrb	w4, [x7, w6, sxtw]
	orr	w3, w4, w3, lsl 4
.LBE1323:
.LBE1329:
	.loc 1 898 0
	strb	w3, [x10, -1]
	.loc 1 893 0
	bgt	.L411
	add	x1, x1, x14
	add	x2, x2, x14
.L410:
	.loc 1 887 0
	add	w13, w13, 1
	cmp	w16, w13
	beq	.L392
	ldr	w3, [x15, 84]
	.loc 1 888 0
	cbnz	w17, .L450
.L408:
	.loc 1 891 0
	mul	w10, w13, w3
.LVL420:
	lsr	w10, w10, 2
	add	x10, x0, x10
.LVL421:
	b	.L409
.LVL422:
.L448:
.LBE1311:
.LBE1310:
.LBB1330:
.LBB1331:
	.loc 1 908 0
	adrp	x5, .LANCHOR0
	.loc 1 914 0
	ldrb	w8, [x3, 48]
	ldr	w4, [x3, 56]
	.loc 1 908 0
	ldr	x15, [x5, #:lo12:.LANCHOR0]
	.loc 1 915 0
	ldr	x3, [x3, 128]
.LVL423:
	.loc 1 914 0
	sub	w8, w8, w4
.LVL424:
	.loc 1 916 0
	add	x15, x15, 24
	.loc 1 915 0
	lsl	w8, w8, 16
.LVL425:
	add	x8, x3, x8, sxtw
.LVL426:
	.loc 1 921 0
	ldr	w16, [x15, 88]
	.loc 1 920 0
	ldr	w3, [x15, 84]
	.loc 1 916 0
	ldr	w17, [x15, 156]
.LVL427:
	.loc 1 926 0
	cmp	w16, 0
	.loc 1 920 0
	lsr	w12, w3, 2
.LVL428:
	.loc 1 926 0
	ble	.L392
	sub	w14, w12, #1
	mov	w13, 0
.LVL429:
	add	x14, x14, 1
	lsl	x14, x14, 2
	.loc 1 927 0
	cbz	w17, .L397
.LVL430:
.L451:
	.loc 1 928 0
	ldr	w11, [x15, 88]
.LVL431:
	sub	w11, w11, #1
	sub	w11, w11, w13
	mul	w11, w11, w3
	lsr	w11, w11, 2
	add	x11, x0, x11
.LVL432:
.L398:
	.loc 1 932 0
	cbz	w12, .L399
	mov	x4, 0
	.p2align 2
.L400:
	.loc 1 934 0
	ldr	w5, [x2, x4, lsl 2]
	.loc 1 933 0
	ldr	w3, [x1, x4, lsl 2]
.LVL433:
.LBB1332:
.LBB1333:
	.loc 1 140 0
	and	w9, w5, 65280
.LBE1333:
.LBE1332:
	.loc 1 937 0
	lsr	w7, w5, 16
.LVL434:
	.loc 1 936 0
	and	w6, w3, 65535
.LBB1338:
.LBB1339:
	.loc 1 139 0
	ubfiz	w10, w7, 8, 8
.LBE1339:
.LBE1338:
	.loc 1 937 0
	lsr	w3, w3, 16
.LBB1344:
.LBB1340:
	.loc 1 140 0
	and	w7, w7, 65280
	.loc 1 139 0
	add	w10, w10, w3, uxtb
.LBE1340:
.LBE1344:
.LBB1345:
.LBB1334:
	ubfiz	w5, w5, 8, 8
.LVL435:
.LBE1334:
.LBE1345:
.LBB1346:
.LBB1341:
	.loc 1 140 0
	add	w3, w7, w3, lsr 8
.LBE1341:
.LBE1346:
.LBB1347:
.LBB1335:
	.loc 1 139 0
	add	w5, w5, w6, uxtb
	.loc 1 140 0
	add	w7, w9, w6, lsr 8
.LBE1335:
.LBE1347:
.LBB1348:
.LBB1342:
	.loc 1 139 0
	ldrb	w9, [x8, w10, sxtw]
	.loc 1 140 0
	ldrb	w3, [x8, w3, sxtw]
.LBE1342:
.LBE1348:
.LBB1349:
.LBB1336:
	ldrb	w6, [x8, w7, sxtw]
	.loc 1 139 0
	ldrb	w5, [x8, w5, sxtw]
.LBE1336:
.LBE1349:
.LBB1350:
.LBB1343:
	orr	w3, w9, w3, lsl 2
.LBE1343:
.LBE1350:
	.loc 1 938 0
	ubfiz	w3, w3, 4, 8
.LBB1351:
.LBB1337:
	.loc 1 139 0
	orr	w5, w5, w6, lsl 2
.LBE1337:
.LBE1351:
	.loc 1 938 0
	orr	w3, w3, w5
	strb	w3, [x11, x4]
	add	x4, x4, 1
	.loc 1 932 0
	cmp	w12, w4
	bgt	.L400
	add	x1, x1, x14
	add	x2, x2, x14
.L399:
	.loc 1 926 0
	add	w13, w13, 1
	cmp	w16, w13
	beq	.L392
	ldr	w3, [x15, 84]
	.loc 1 927 0
	cbnz	w17, .L451
.L397:
	.loc 1 930 0
	mul	w11, w13, w3
.LVL436:
	lsr	w11, w11, 2
	add	x11, x0, x11
.LVL437:
	b	.L398
.LBE1331:
.LBE1330:
	.cfi_endproc
.LFE2821:
	.size	direct_mode_data_change, .-direct_mode_data_change
	.align	2
	.p2align 3,,7
	.type	direct_mode_data_change_part, %function
direct_mode_data_change_part:
.LFB2827:
	.loc 1 1391 0
	.cfi_startproc
.LVL438:
	stp	x29, x30, [sp, -96]!
	.cfi_def_cfa_offset 96
	.cfi_offset 29, -96
	.cfi_offset 30, -88
	add	x29, sp, 0
	.cfi_def_cfa_register 29
	stp	x19, x20, [sp, 16]
	stp	x21, x22, [sp, 32]
	stp	x23, x24, [sp, 48]
	stp	x25, x26, [sp, 64]
	str	x27, [sp, 80]
	.cfi_offset 19, -80
	.cfi_offset 20, -72
	.cfi_offset 21, -64
	.cfi_offset 22, -56
	.cfi_offset 23, -48
	.cfi_offset 24, -40
	.cfi_offset 25, -32
	.cfi_offset 26, -24
	.cfi_offset 27, -16
	.loc 1 1392 0
	ldr	x4, [x3, 224]
	ldr	w4, [x4, 64]
	cmp	w4, 32
	beq	.L626
	.loc 1 1395 0
	cmp	w4, 16
	beq	.L627
.L469:
.LBB1378:
.LBB1379:
	.loc 1 1314 0
	adrp	x5, .LANCHOR0
	.loc 1 1320 0
	ldrb	w6, [x3, 48]
	ldr	w4, [x3, 56]
	.loc 1 1314 0
	ldr	x11, [x5, #:lo12:.LANCHOR0]
	.loc 1 1321 0
	ldr	x3, [x3, 128]
.LVL439:
	.loc 1 1320 0
	sub	w6, w6, w4
.LVL440:
	.loc 1 1322 0
	add	x11, x11, 24
	.loc 1 1321 0
	lsl	w6, w6, 16
.LVL441:
	add	x6, x3, x6, sxtw
.LVL442:
	.loc 1 1325 0
	ldr	w14, [x11, 88]
	.loc 1 1324 0
	ldr	w3, [x11, 84]
	.loc 1 1322 0
	ldr	w15, [x11, 156]
.LVL443:
	.loc 1 1327 0
	cmp	w14, 0
	.loc 1 1324 0
	lsr	w13, w3, 3
	.loc 1 1327 0
	ble	.L452
	sub	w12, w13, #1
	mov	w10, 0
.LVL444:
	add	x12, x12, 1
	lsl	x16, x12, 2
	lsl	x12, x12, 3
	.loc 1 1328 0
	cbz	w15, .L528
.LVL445:
	.p2align 2
.L628:
	.loc 1 1329 0
	ldr	w7, [x11, 88]
.LVL446:
	sub	w7, w7, #1
	sub	w7, w7, w10
	mul	w7, w7, w3
	lsr	w7, w7, 2
	add	x7, x0, x7
.LVL447:
.L529:
	.loc 1 1333 0
	cbz	w13, .L530
	add	x9, x1, x16
	mov	x8, x2
	.p2align 2
.L541:
	.loc 1 1335 0
	ldr	w5, [x8]
	.loc 1 1340 0
	mov	w3, 0
	.loc 1 1334 0
	ldr	w4, [x1], 4
	.loc 1 1339 0
	ubfx	x17, x5, 4, 4
.LVL448:
	.loc 1 1338 0
	and	w18, w4, 15
	.loc 1 1340 0
	cmp	w18, w17
	beq	.L531
	.loc 1 1341 0
	add	w17, w18, w17, lsl 8
	ldrb	w3, [x6, w17, sxtw]
	and	w3, w3, 3
.L531:
	.loc 1 1343 0
	ubfx	x18, x4, 4, 4
	.loc 1 1344 0
	ubfx	x17, x5, 12, 4
	.loc 1 1345 0
	cmp	w18, w17
	beq	.L532
	.loc 1 1346 0
	add	w17, w18, w17, lsl 8
	ldrb	w17, [x6, w17, sxtw]
	ubfiz	w17, w17, 2, 2
	orr	w3, w3, w17
.L532:
	.loc 1 1348 0
	ubfx	x18, x4, 8, 4
	.loc 1 1349 0
	ubfx	x17, x5, 20, 4
	.loc 1 1350 0
	cmp	w18, w17
	beq	.L624
	.loc 1 1351 0
	add	w17, w18, w17, lsl 8
	ldrb	w17, [x6, w17, sxtw]
	ubfiz	w17, w17, 4, 2
	orr	w3, w3, w17
.L624:
	.loc 1 1353 0
	ubfx	x17, x4, 12, 4
	.loc 1 1354 0
	lsr	w5, w5, 28
	.loc 1 1351 0
	and	w3, w3, 255
	.loc 1 1355 0
	cmp	w17, w5
	beq	.L535
	.loc 1 1356 0
	add	w5, w17, w5, lsl 8
	ldrb	w5, [x6, w5, sxtw]
	orr	w3, w3, w5, lsl 6
	and	w3, w3, 255
.L535:
	add	x8, x8, 8
	.loc 1 1358 0
	strb	w3, [x7]
	.loc 1 1363 0
	ubfx	x18, x4, 16, 4
	.loc 1 1365 0
	mov	w3, 0
	.loc 1 1360 0
	ldr	w5, [x8, -4]
	.loc 1 1364 0
	ubfx	x17, x5, 4, 4
	.loc 1 1365 0
	cmp	w18, w17
	beq	.L536
	.loc 1 1366 0
	add	w17, w18, w17, lsl 8
	ldrb	w3, [x6, w17, sxtw]
	and	w3, w3, 3
.L536:
	.loc 1 1368 0
	ubfx	x18, x4, 20, 4
	.loc 1 1369 0
	ubfx	x17, x5, 12, 4
	.loc 1 1370 0
	cmp	w18, w17
	beq	.L537
	.loc 1 1371 0
	add	w17, w18, w17, lsl 8
	ldrb	w17, [x6, w17, sxtw]
	ubfiz	w17, w17, 2, 2
	orr	w3, w3, w17
.L537:
	.loc 1 1373 0
	ubfx	x18, x4, 24, 4
	.loc 1 1374 0
	ubfx	x17, x5, 20, 4
	.loc 1 1375 0
	cmp	w18, w17
	beq	.L625
	.loc 1 1376 0
	add	w17, w18, w17, lsl 8
	ldrb	w17, [x6, w17, sxtw]
	ubfiz	w17, w17, 4, 2
	orr	w3, w3, w17
.L625:
	.loc 1 1378 0
	lsr	w4, w4, 28
.LVL449:
	.loc 1 1379 0
	lsr	w5, w5, 28
	.loc 1 1376 0
	and	w3, w3, 255
	.loc 1 1380 0
	cmp	w4, w5
	beq	.L540
	.loc 1 1381 0
	add	w4, w4, w5, lsl 8
	ldrb	w4, [x6, w4, sxtw]
	orr	w3, w3, w4, lsl 6
	and	w3, w3, 255
.L540:
	add	x7, x7, 2
	.loc 1 1383 0
	strb	w3, [x7, -1]
	.loc 1 1333 0
	cmp	x1, x9
	bne	.L541
	add	x2, x2, x12
.L530:
	.loc 1 1327 0
	add	w10, w10, 1
	cmp	w14, w10
	beq	.L452
	ldr	w3, [x11, 84]
	.loc 1 1328 0
	cbnz	w15, .L628
.L528:
	.loc 1 1331 0
	mul	w7, w10, w3
.LVL450:
	lsr	w7, w7, 2
	add	x7, x0, x7
.LVL451:
	b	.L529
.LVL452:
	.p2align 3
.L452:
.LBE1379:
.LBE1378:
	.loc 1 1407 0
	ldp	x19, x20, [sp, 16]
.LVL453:
	ldp	x21, x22, [sp, 32]
.LVL454:
	ldp	x23, x24, [sp, 48]
.LVL455:
	ldp	x25, x26, [sp, 64]
.LVL456:
	ldr	x27, [sp, 80]
	ldp	x29, x30, [sp], 96
	.cfi_remember_state
	.cfi_restore 30
	.cfi_restore 29
	.cfi_restore 27
	.cfi_restore 25
	.cfi_restore 26
	.cfi_restore 23
	.cfi_restore 24
	.cfi_restore 21
	.cfi_restore 22
	.cfi_restore 19
	.cfi_restore 20
	.cfi_def_cfa 31, 0
.LVL457:
	ret
.LVL458:
.L627:
	.cfi_restore_state
	.loc 1 1396 0
	ldr	x4, [x3, 216]
	ldr	w4, [x4, 64]
	cmp	w4, 16
	bne	.L469
	.loc 1 1397 0
	ldr	w15, [x3, 88]
.LBB1380:
.LBB1381:
	.loc 1 1151 0
	adrp	x5, .LANCHOR0
.LVL459:
.LBE1381:
.LBE1380:
	.loc 1 1397 0
	cbz	w15, .L470
.LBB1394:
.LBB1392:
	.loc 1 1151 0
	ldr	x12, [x5, #:lo12:.LANCHOR0]
	.loc 1 1156 0
	ldrb	w9, [x3, 48]
	ldr	w4, [x3, 56]
	.loc 1 1158 0
	add	x12, x12, 24
	.loc 1 1157 0
	ldr	x3, [x3, 128]
.LVL460:
	.loc 1 1156 0
	sub	w9, w9, w4
.LVL461:
	.loc 1 1161 0
	ldr	w13, [x12, 88]
	.loc 1 1157 0
	lsl	w9, w9, 16
.LVL462:
	.loc 1 1158 0
	ldr	w14, [x12, 156]
	.loc 1 1157 0
	add	x9, x3, x9, sxtw
.LVL463:
	.loc 1 1160 0
	ldr	w3, [x12, 84]
.LVL464:
	.loc 1 1166 0
	cmp	w13, 0
	.loc 1 1160 0
	lsr	w11, w3, 4
.LVL465:
	.loc 1 1166 0
	ble	.L452
	sub	w16, w11, #1
	mov	w15, 0
.LVL466:
	add	x16, x16, 1
.LBB1382:
.LBB1383:
	.loc 1 145 0
	mov	w10, 3
	lsl	x16, x16, 3
.LBE1383:
.LBE1382:
	.loc 1 1167 0
	cbz	w14, .L471
.LVL467:
.L629:
	.loc 1 1168 0
	ldr	w5, [x12, 88]
.LVL468:
	sub	w5, w5, #1
	sub	w5, w5, w15
	mul	w5, w5, w3
	lsr	w5, w5, 2
	add	x5, x0, x5
.LVL469:
.L472:
	.loc 1 1172 0
	cbz	w11, .L473
	add	x5, x5, 4
.LVL470:
	mov	x8, 0
.LVL471:
	.p2align 2
.L496:
	.loc 1 1173 0
	ldr	x3, [x1, x8, lsl 3]
	.loc 1 1174 0
	ldr	x4, [x2, x8, lsl 3]
	.loc 1 1175 0
	cmp	x3, x4
	beq	.L474
	.loc 1 1176 0
	and	w17, w4, 65535
	and	w7, w3, 65535
.LVL472:
.LBB1385:
.LBB1386:
	.loc 1 149 0
	mov	w6, 0
	.loc 1 148 0
	cmp	w17, w7
	beq	.L475
	.loc 1 146 0
	eor	w18, w17, w7
.LVL473:
	.loc 1 159 0
	ubfiz	w30, w17, 8, 8
	.loc 1 160 0
	and	w17, w17, 65280
	.loc 1 159 0
	add	w30, w30, w7, uxtb
	.loc 1 145 0
	tst	x18, 15
	.loc 1 160 0
	add	w7, w17, w7, lsr 8
	.loc 1 145 0
	csel	w6, w10, wzr, ne
	.loc 1 153 0
	tst	w18, 240
	orr	w17, w6, 12
	.loc 1 159 0
	ldrb	w19, [x9, w30, sxtw]
	.loc 1 153 0
	csel	w6, w17, w6, ne
	.loc 1 155 0
	tst	w18, 3840
	orr	w17, w6, 48
	.loc 1 160 0
	ldrb	w7, [x9, w7, sxtw]
	.loc 1 155 0
	csel	w6, w17, w6, ne
	.loc 1 157 0
	tst	w18, 61440
	orr	w17, w6, -64
	and	w17, w17, 255
	.loc 1 159 0
	orr	w7, w19, w7, lsl 4
	.loc 1 157 0
	csel	w6, w17, w6, ne
	.loc 1 159 0
	and	w6, w7, w6
	and	w6, w6, 255
.LVL474:
.L475:
.LBE1386:
.LBE1385:
	.loc 1 1176 0
	strb	w6, [x5, -4]
	.loc 1 1177 0
	lsr	w17, w4, 16
	lsr	w7, w3, 16
.LBB1387:
.LBB1388:
	.loc 1 149 0
	mov	w6, 0
	.loc 1 148 0
	cmp	w17, w7
	beq	.L480
	.loc 1 146 0
	eor	w18, w17, w7
.LVL475:
	.loc 1 159 0
	ubfiz	w30, w17, 8, 8
	.loc 1 160 0
	and	w17, w17, 65280
	.loc 1 159 0
	add	w30, w30, w7, uxtb
	.loc 1 145 0
	tst	x18, 15
	.loc 1 160 0
	add	w7, w17, w7, lsr 8
	.loc 1 145 0
	csel	w6, w10, wzr, ne
	.loc 1 153 0
	tst	w18, 240
	orr	w17, w6, 12
	.loc 1 159 0
	ldrb	w19, [x9, w30, sxtw]
	.loc 1 153 0
	csel	w6, w17, w6, ne
	.loc 1 155 0
	tst	w18, 3840
	orr	w17, w6, 48
	.loc 1 160 0
	ldrb	w7, [x9, w7, sxtw]
	.loc 1 155 0
	csel	w6, w17, w6, ne
	.loc 1 157 0
	tst	w18, 61440
	orr	w17, w6, -64
	and	w17, w17, 255
	.loc 1 159 0
	orr	w7, w19, w7, lsl 4
	.loc 1 157 0
	csel	w6, w17, w6, ne
	.loc 1 159 0
	and	w6, w7, w6
	and	w6, w6, 255
.LVL476:
.L480:
.LBE1388:
.LBE1387:
	.loc 1 1177 0
	strb	w6, [x5, -3]
	.loc 1 1178 0
	ubfx	x17, x4, 32, 16
	ubfx	x7, x3, 32, 16
.LBB1389:
.LBB1390:
	.loc 1 149 0
	mov	w6, 0
	.loc 1 148 0
	cmp	w17, w7
	beq	.L485
	.loc 1 146 0
	eor	w18, w17, w7
.LVL477:
	.loc 1 159 0
	ubfiz	w30, w17, 8, 8
	.loc 1 160 0
	and	w17, w17, 65280
	.loc 1 159 0
	add	w30, w30, w7, uxtb
	.loc 1 145 0
	tst	x18, 15
	.loc 1 160 0
	add	w7, w17, w7, lsr 8
	.loc 1 145 0
	csel	w6, w10, wzr, ne
	.loc 1 153 0
	tst	w18, 240
	orr	w17, w6, 12
	.loc 1 159 0
	ldrb	w19, [x9, w30, sxtw]
	.loc 1 153 0
	csel	w6, w17, w6, ne
	.loc 1 155 0
	tst	w18, 3840
	orr	w17, w6, 48
	.loc 1 160 0
	ldrb	w7, [x9, w7, sxtw]
	.loc 1 155 0
	csel	w6, w17, w6, ne
	.loc 1 157 0
	tst	w18, 61440
	orr	w17, w6, -64
	and	w17, w17, 255
	.loc 1 159 0
	orr	w7, w19, w7, lsl 4
	.loc 1 157 0
	csel	w6, w17, w6, ne
	.loc 1 159 0
	and	w6, w7, w6
	and	w6, w6, 255
.LVL478:
.L485:
.LBE1390:
.LBE1389:
	.loc 1 1178 0
	strb	w6, [x5, -2]
	.loc 1 1179 0
	lsr	x4, x4, 48
.LVL479:
	lsr	x3, x3, 48
.LVL480:
.LBB1391:
.LBB1384:
	.loc 1 149 0
	mov	w6, 0
	.loc 1 148 0
	cmp	w4, w3
	beq	.L490
	.loc 1 146 0
	eor	w7, w4, w3
.LVL481:
	.loc 1 159 0
	ubfiz	w6, w4, 8, 8
	.loc 1 160 0
	and	w4, w4, 65280
	.loc 1 159 0
	add	w6, w6, w3, uxtb
	.loc 1 145 0
	tst	x7, 15
	.loc 1 160 0
	add	w3, w4, w3, lsr 8
	.loc 1 145 0
	csel	w4, w10, wzr, ne
	.loc 1 153 0
	tst	w7, 240
	orr	w18, w4, 12
.LVL482:
	.loc 1 159 0
	ldrb	w17, [x9, w6, sxtw]
	.loc 1 153 0
	csel	w4, w18, w4, ne
	.loc 1 155 0
	tst	w7, 3840
	orr	w18, w4, 48
	.loc 1 160 0
	ldrb	w6, [x9, w3, sxtw]
	.loc 1 155 0
	csel	w4, w18, w4, ne
	.loc 1 157 0
	tst	w7, 61440
	orr	w3, w4, -64
	and	w3, w3, 255
	.loc 1 159 0
	orr	w6, w17, w6, lsl 4
	.loc 1 157 0
	csel	w4, w3, w4, ne
	.loc 1 159 0
	and	w4, w6, w4
	and	w6, w4, 255
.LVL483:
.L490:
.LBE1384:
.LBE1391:
	.loc 1 1179 0
	strb	w6, [x5, -1]
.LVL484:
.L495:
	add	x8, x8, 1
	add	x5, x5, 4
	.loc 1 1172 0
	cmp	w11, w8
	bgt	.L496
	add	x1, x1, x16
.LVL485:
	add	x2, x2, x16
.LVL486:
.L473:
	.loc 1 1166 0
	add	w15, w15, 1
	cmp	w13, w15
	beq	.L452
	ldr	w3, [x12, 84]
.LVL487:
	.loc 1 1167 0
	cbnz	w14, .L629
.L471:
	.loc 1 1170 0
	mul	w5, w15, w3
.LVL488:
	lsr	w5, w5, 2
	add	x5, x0, x5
.LVL489:
	b	.L472
.LVL490:
.L626:
.LBE1392:
.LBE1394:
	.loc 1 1393 0
	ldr	x4, [x3, 216]
	ldr	w4, [x4, 64]
	cmp	w4, 32
	beq	.L630
	.loc 1 1402 0
	cmp	w4, 16
	bne	.L469
.LBB1395:
.LBB1396:
	.loc 1 1236 0
	adrp	x5, .LANCHOR0
	.loc 1 1242 0
	ldrb	w6, [x3, 48]
	ldr	w4, [x3, 56]
	.loc 1 1236 0
	ldr	x11, [x5, #:lo12:.LANCHOR0]
	.loc 1 1243 0
	ldr	x3, [x3, 128]
.LVL491:
	.loc 1 1242 0
	sub	w6, w6, w4
.LVL492:
	.loc 1 1244 0
	add	x11, x11, 24
	.loc 1 1243 0
	lsl	w6, w6, 16
.LVL493:
	add	x6, x3, x6, sxtw
.LVL494:
	.loc 1 1247 0
	ldr	w14, [x11, 88]
	.loc 1 1246 0
	ldr	w3, [x11, 84]
	.loc 1 1244 0
	ldr	w15, [x11, 156]
.LVL495:
	.loc 1 1249 0
	cmp	w14, 0
	.loc 1 1246 0
	lsr	w13, w3, 3
	.loc 1 1249 0
	ble	.L452
	sub	w12, w13, #1
	mov	w10, 0
.LVL496:
	add	x12, x12, 1
	lsl	x16, x12, 3
	lsl	x12, x12, 2
	.loc 1 1250 0
	cbz	w15, .L515
.LVL497:
.L631:
	.loc 1 1251 0
	ldr	w7, [x11, 88]
.LVL498:
	sub	w7, w7, #1
	sub	w7, w7, w10
	mul	w7, w7, w3
	lsr	w7, w7, 2
	add	x7, x0, x7
.LVL499:
.L516:
	.loc 1 1255 0
	cbz	w13, .L517
	add	x9, x1, x16
	mov	x8, x2
	.p2align 2
.L526:
	.loc 1 1257 0
	ldr	w3, [x8], 4
	.loc 1 1258 0
	mov	w17, 0
	.loc 1 1256 0
	ldr	w4, [x1]
.LVL500:
	.loc 1 1261 0
	and	w5, w3, 255
	ubfiz	w18, w5, 4, 4
	.loc 1 1260 0
	and	w30, w4, 248
	.loc 1 1262 0
	cmp	w30, w18
	beq	.L518
	.loc 1 1263 0
	add	w18, w30, w18, lsl 8
	ldrb	w17, [x6, w18, sxtw]
.L518:
	.loc 1 1265 0
	lsr	w18, w4, 8
	.loc 1 1266 0
	and	w5, w5, 240
	.loc 1 1265 0
	and	w18, w18, 248
	.loc 1 1267 0
	cmp	w18, w5
	beq	.L519
	.loc 1 1268 0
	add	w5, w18, w5, lsl 8
	ldrb	w5, [x6, w5, sxtw]
	orr	w17, w17, w5, lsl 2
	and	w17, w17, 255
.L519:
	.loc 1 1270 0
	lsr	w18, w4, 16
	.loc 1 1271 0
	lsr	w5, w3, 4
	.loc 1 1270 0
	and	w18, w18, 248
	.loc 1 1271 0
	and	w5, w5, 240
	.loc 1 1272 0
	cmp	w18, w5
	beq	.L520
	.loc 1 1273 0
	add	w5, w18, w5, lsl 8
	ldrb	w5, [x6, w5, sxtw]
	orr	w17, w17, w5, lsl 4
	and	w17, w17, 255
.L520:
	.loc 1 1275 0
	lsr	w4, w4, 24
	.loc 1 1276 0
	lsr	w5, w3, 8
	.loc 1 1275 0
	and	w4, w4, 248
	.loc 1 1276 0
	and	w5, w5, 240
	.loc 1 1277 0
	cmp	w4, w5
	beq	.L521
	.loc 1 1278 0
	add	w4, w4, w5, lsl 8
	ldrb	w4, [x6, w4, sxtw]
	orr	w17, w17, w4, lsl 6
	and	w17, w17, 255
.L521:
	add	x1, x1, 8
	.loc 1 1280 0
	strb	w17, [x7]
	.loc 1 1286 0
	lsr	w5, w3, 12
	.loc 1 1283 0
	mov	w17, 0
	.loc 1 1286 0
	and	w5, w5, 240
	.loc 1 1282 0
	ldr	w4, [x1, -4]
	.loc 1 1285 0
	and	w18, w4, 248
	.loc 1 1287 0
	cmp	w18, w5
	beq	.L522
	.loc 1 1288 0
	add	w5, w18, w5, lsl 8
	ldrb	w17, [x6, w5, sxtw]
.L522:
	.loc 1 1290 0
	lsr	w18, w4, 8
	.loc 1 1291 0
	lsr	w5, w3, 16
	.loc 1 1290 0
	and	w18, w18, 248
	.loc 1 1291 0
	and	w5, w5, 240
	.loc 1 1292 0
	cmp	w18, w5
	beq	.L523
	.loc 1 1293 0
	add	w5, w18, w5, lsl 8
	ldrb	w5, [x6, w5, sxtw]
	orr	w17, w17, w5, lsl 2
	and	w17, w17, 255
.L523:
	.loc 1 1295 0
	lsr	w18, w4, 16
	.loc 1 1296 0
	lsr	w5, w3, 20
	.loc 1 1295 0
	and	w18, w18, 248
	.loc 1 1296 0
	and	w5, w5, 240
	.loc 1 1297 0
	cmp	w18, w5
	beq	.L524
	.loc 1 1298 0
	add	w5, w18, w5, lsl 8
	ldrb	w5, [x6, w5, sxtw]
	orr	w17, w17, w5, lsl 4
	and	w17, w17, 255
.L524:
	.loc 1 1300 0
	lsr	w4, w4, 24
	.loc 1 1301 0
	lsr	w3, w3, 24
	.loc 1 1300 0
	and	w4, w4, 248
	.loc 1 1301 0
	and	w3, w3, 240
	.loc 1 1302 0
	cmp	w4, w3
	beq	.L525
	.loc 1 1303 0
	add	w3, w4, w3, lsl 8
	ldrb	w3, [x6, w3, sxtw]
	orr	w17, w17, w3, lsl 6
	and	w17, w17, 255
.L525:
	add	x7, x7, 2
	.loc 1 1305 0
	strb	w17, [x7, -1]
	.loc 1 1255 0
	cmp	x1, x9
	bne	.L526
	add	x2, x2, x12
.L517:
	.loc 1 1249 0
	add	w10, w10, 1
	cmp	w14, w10
	beq	.L452
	ldr	w3, [x11, 84]
	.loc 1 1250 0
	cbnz	w15, .L631
.L515:
	.loc 1 1253 0
	mul	w7, w10, w3
.LVL501:
	lsr	w7, w7, 2
	add	x7, x0, x7
.LVL502:
	b	.L516
.LVL503:
.L470:
.LBE1396:
.LBE1395:
.LBB1397:
.LBB1398:
	.loc 1 1110 0
	ldr	x17, [x5, #:lo12:.LANCHOR0]
	.loc 1 1115 0
	ldrb	w12, [x3, 48]
	ldr	w4, [x3, 56]
	.loc 1 1117 0
	add	x17, x17, 24
	.loc 1 1116 0
	ldr	x3, [x3, 128]
.LVL504:
	.loc 1 1115 0
	sub	w12, w12, w4
.LVL505:
	.loc 1 1120 0
	ldr	w18, [x17, 88]
	.loc 1 1116 0
	lsl	w12, w12, 16
.LVL506:
	.loc 1 1117 0
	ldr	w30, [x17, 156]
	.loc 1 1116 0
	add	x12, x3, x12, sxtw
.LVL507:
	.loc 1 1119 0
	ldr	w3, [x17, 84]
.LVL508:
	.loc 1 1125 0
	cmp	w18, 0
	.loc 1 1119 0
	lsr	w13, w3, 3
.LVL509:
	.loc 1 1125 0
	ble	.L452
	sub	w16, w13, #1
.LBB1399:
.LBB1400:
	.loc 1 145 0
	mov	w14, 3
	add	x16, x16, 1
	lsl	x16, x16, 2
.LBE1400:
.LBE1399:
	.loc 1 1126 0
	cbz	w30, .L498
.LVL510:
.L632:
	.loc 1 1127 0
	ldr	w11, [x17, 88]
.LVL511:
	sub	w11, w11, #1
	sub	w11, w11, w15
	mul	w11, w11, w3
	lsr	w11, w11, 2
	add	x11, x0, x11
.LVL512:
.L499:
	.loc 1 1131 0
	cbz	w13, .L500
	add	x11, x11, 2
.LVL513:
	mov	x9, 0
	.p2align 2
.L513:
	.loc 1 1133 0
	ldr	w5, [x2, x9, lsl 2]
.LBB1406:
.LBB1407:
	.loc 1 149 0
	mov	w4, 0
.LBE1407:
.LBE1406:
	.loc 1 1132 0
	ldr	w22, [x1, x9, lsl 2]
.LBB1412:
.LBB1401:
	.loc 1 149 0
	mov	w8, 0
.LBE1401:
.LBE1412:
	.loc 1 1135 0
	and	w25, w5, 65535
	and	w7, w22, 65535
.LBB1413:
.LBB1408:
	.loc 1 160 0
	and	w3, w25, 65280
	add	w6, w3, w7, lsr 8
.LBE1408:
.LBE1413:
	.loc 1 1136 0
	lsr	w3, w5, 16
.LBB1414:
.LBB1402:
	.loc 1 159 0
	ubfiz	w21, w3, 8, 8
.LBE1402:
.LBE1414:
	.loc 1 1136 0
	and	w3, w3, 65535
	lsr	w10, w22, 16
.LBB1415:
.LBB1409:
	.loc 1 159 0
	ubfiz	w23, w5, 8, 8
.LBE1409:
.LBE1415:
.LBB1416:
.LBB1403:
	.loc 1 160 0
	and	w19, w3, 65280
.LBE1403:
.LBE1416:
.LBB1417:
.LBB1410:
	.loc 1 146 0
	eor	w24, w25, w7
	.loc 1 159 0
	add	w23, w23, w7, uxtb
.LBE1410:
.LBE1417:
.LBB1418:
.LBB1404:
	add	w21, w21, w10, uxtb
	.loc 1 146 0
	eor	w20, w3, w10
	.loc 1 160 0
	add	w19, w19, w10, lsr 8
.LBE1404:
.LBE1418:
	.loc 1 1134 0
	cmp	w22, w5
	beq	.L501
.LBB1419:
.LBB1411:
	.loc 1 148 0
	cmp	w25, w7
	beq	.L502
	.loc 1 145 0
	tst	x24, 15
	.loc 1 160 0
	ldrb	w5, [x12, w6, sxtw]
	.loc 1 145 0
	csel	w4, w14, wzr, ne
	.loc 1 153 0
	tst	w24, 240
	orr	w6, w4, 12
	.loc 1 159 0
	ldrb	w7, [x12, w23, sxtw]
	.loc 1 153 0
	csel	w4, w6, w4, ne
	.loc 1 155 0
	tst	w24, 3840
	orr	w6, w4, 48
	csel	w4, w6, w4, ne
	.loc 1 157 0
	tst	w24, 61440
	orr	w6, w4, -64
	.loc 1 159 0
	orr	w5, w7, w5, lsl 4
	.loc 1 157 0
	and	w6, w6, 255
	csel	w4, w6, w4, ne
	.loc 1 159 0
	and	w4, w5, w4
	and	w4, w4, 255
.L502:
.LBE1411:
.LBE1419:
	.loc 1 1135 0
	strb	w4, [x11, -2]
.LBB1420:
.LBB1405:
	.loc 1 148 0
	cmp	w3, w10
	beq	.L507
	.loc 1 145 0
	tst	x20, 15
	.loc 1 159 0
	ldrb	w6, [x12, w21, sxtw]
	.loc 1 145 0
	csel	w3, w14, wzr, ne
	.loc 1 153 0
	tst	w20, 240
	orr	w5, w3, 12
	.loc 1 160 0
	ldrb	w4, [x12, w19, sxtw]
	.loc 1 153 0
	csel	w3, w5, w3, ne
	.loc 1 155 0
	tst	w20, 3840
	orr	w5, w3, 48
	csel	w3, w5, w3, ne
	.loc 1 157 0
	tst	w20, 61440
	orr	w5, w3, -64
	.loc 1 159 0
	orr	w4, w6, w4, lsl 4
	.loc 1 157 0
	and	w5, w5, 255
	csel	w3, w5, w3, ne
	.loc 1 159 0
	and	w3, w4, w3
	and	w8, w3, 255
.L507:
.LBE1405:
.LBE1420:
	.loc 1 1136 0
	strb	w8, [x11, -1]
.L512:
	add	x9, x9, 1
	add	x11, x11, 2
	.loc 1 1131 0
	cmp	w13, w9
	bgt	.L513
	add	x1, x1, x16
	add	x2, x2, x16
.LVL514:
.L500:
	.loc 1 1125 0
	add	w15, w15, 1
	cmp	w18, w15
	beq	.L452
	ldr	w3, [x17, 84]
	.loc 1 1126 0
	cbnz	w30, .L632
.L498:
	.loc 1 1129 0
	mul	w11, w15, w3
.LVL515:
	lsr	w11, w11, 2
	add	x11, x0, x11
.LVL516:
	b	.L499
.LVL517:
	.p2align 3
.L474:
.LBE1398:
.LBE1397:
.LBB1422:
.LBB1393:
	.loc 1 1182 0
	str	wzr, [x5, -4]
	b	.L495
.LVL518:
	.p2align 3
.L501:
.LBE1393:
.LBE1422:
.LBB1423:
.LBB1421:
	.loc 1 1139 0
	strh	wzr, [x11, -2]
	b	.L512
.LVL519:
.L630:
.LBE1421:
.LBE1423:
.LBB1424:
.LBB1425:
	.loc 1 1194 0
	adrp	x5, .LANCHOR0
	.loc 1 1199 0
	ldrb	w15, [x3, 48]
	ldr	w4, [x3, 56]
	.loc 1 1194 0
	ldr	x21, [x5, #:lo12:.LANCHOR0]
	.loc 1 1200 0
	ldr	x3, [x3, 128]
.LVL520:
	.loc 1 1199 0
	sub	w15, w15, w4
.LVL521:
	.loc 1 1201 0
	add	x21, x21, 24
	.loc 1 1200 0
	lsl	w15, w15, 16
.LVL522:
	add	x15, x3, x15, sxtw
.LVL523:
	.loc 1 1206 0
	ldr	w22, [x21, 88]
	.loc 1 1205 0
	ldr	w3, [x21, 84]
	.loc 1 1201 0
	ldr	w23, [x21, 156]
.LVL524:
	.loc 1 1211 0
	cmp	w22, 0
	.loc 1 1205 0
	lsr	w17, w3, 2
.LVL525:
	.loc 1 1211 0
	ble	.L452
	sub	w20, w17, #1
	mov	w19, 0
.LVL526:
	add	x20, x20, 1
.LBB1426:
.LBB1427:
	.loc 1 167 0
	mov	w18, 3
	lsl	x20, x20, 2
.LBE1427:
.LBE1426:
	.loc 1 1212 0
	cbz	w23, .L457
.LVL527:
.L635:
	.loc 1 1213 0
	ldr	w16, [x21, 88]
.LVL528:
	sub	w16, w16, #1
	sub	w16, w16, w19
	mul	w16, w16, w3
	lsr	w16, w16, 2
	add	x16, x0, x16
.LVL529:
.L458:
	.loc 1 1217 0
	cbz	w17, .L459
	mov	x11, 0
	b	.L468
.LVL530:
	.p2align 3
.L634:
.LBB1433:
.LBB1434:
	.loc 1 170 0
	cmp	w7, w5
	beq	.L461
	.loc 1 177 0
	ldrb	w4, [x15, w8, sxtw]
	.loc 1 167 0
	cmp	w27, 0
	.loc 1 178 0
	ldrb	w12, [x15, w9, sxtw]
	.loc 1 177 0
	orr	w12, w4, w12, lsl 2
	.loc 1 167 0
	csel	w4, w18, wzr, ne
.LVL531:
	.loc 1 175 0
	orr	w5, w4, 12
	tst	w30, 65280
	csel	w4, w5, w4, ne
	and	w12, w12, w4
.L461:
.LBE1434:
.LBE1433:
.LBB1438:
.LBB1428:
	.loc 1 170 0
	cmp	w3, w13
	beq	.L464
	.loc 1 167 0
	cmp	w26, 0
	.loc 1 178 0
	ldrb	w3, [x15, w24, sxtw]
	.loc 1 177 0
	ldrb	w5, [x15, w14, sxtw]
	.loc 1 167 0
	csel	w4, w18, wzr, ne
.LVL532:
	.loc 1 175 0
	orr	w6, w4, 12
	tst	w25, 65280
	csel	w4, w6, w4, ne
	.loc 1 177 0
	orr	w3, w5, w3, lsl 2
	and	w3, w3, w4
	lsl	w3, w3, 4
	sxtb	w10, w3
.LVL533:
.L464:
.LBE1428:
.LBE1438:
	.loc 1 1223 0
	orr	w3, w12, w10
	strb	w3, [x16, x11]
	add	x11, x11, 1
	.loc 1 1217 0
	cmp	w17, w11
	ble	.L633
.L468:
	.loc 1 1219 0
	ldr	w4, [x2, x11, lsl 2]
.LVL534:
.LBB1439:
.LBB1435:
	.loc 1 170 0
	mov	w12, 0
.LBE1435:
.LBE1439:
	.loc 1 1218 0
	ldr	w6, [x1, x11, lsl 2]
.LBB1440:
.LBB1429:
	.loc 1 170 0
	mov	w10, 0
.LBE1429:
.LBE1440:
	.loc 1 1221 0
	and	w7, w4, 65535
	.loc 1 1222 0
	lsr	w3, w4, 16
	.loc 1 1221 0
	and	w5, w6, 65535
	.loc 1 1222 0
	lsr	w13, w6, 16
.LBB1441:
.LBB1430:
	.loc 1 177 0
	ubfiz	w14, w3, 8, 8
.LBE1430:
.LBE1441:
	.loc 1 1222 0
	and	w3, w3, 65535
.LBB1442:
.LBB1436:
	.loc 1 177 0
	ubfiz	w8, w4, 8, 8
	.loc 1 178 0
	and	w9, w7, 65280
	.loc 1 168 0
	eor	w30, w7, w5
.LBE1436:
.LBE1442:
.LBB1443:
.LBB1431:
	.loc 1 178 0
	and	w24, w3, 65280
	.loc 1 168 0
	eor	w25, w3, w13
.LBE1431:
.LBE1443:
.LBB1444:
.LBB1437:
	.loc 1 177 0
	add	w8, w8, w5, uxtb
	.loc 1 178 0
	add	w9, w9, w5, lsr 8
	.loc 1 172 0
	and	w27, w30, 255
.LBE1437:
.LBE1444:
.LBB1445:
.LBB1432:
	.loc 1 177 0
	add	w14, w14, w13, uxtb
	.loc 1 178 0
	add	w24, w24, w13, lsr 8
	.loc 1 172 0
	and	w26, w25, 255
.LBE1432:
.LBE1445:
	.loc 1 1220 0
	cmp	w6, w4
	bne	.L634
	.loc 1 1226 0
	strb	wzr, [x16, x11]
	add	x11, x11, 1
	.loc 1 1217 0
	cmp	w17, w11
	bgt	.L468
.LVL535:
.L633:
	add	x1, x1, x20
	add	x2, x2, x20
.L459:
	.loc 1 1211 0
	add	w19, w19, 1
	cmp	w22, w19
	beq	.L452
	ldr	w3, [x21, 84]
	.loc 1 1212 0
	cbnz	w23, .L635
.L457:
	.loc 1 1215 0
	mul	w16, w19, w3
.LVL536:
	lsr	w16, w16, 2
	add	x16, x0, x16
.LVL537:
	b	.L458
.LBE1425:
.LBE1424:
	.cfi_endproc
.LFE2827:
	.size	direct_mode_data_change_part, .-direct_mode_data_change_part
	.align	2
	.p2align 3,,7
	.type	flip.isra.11, %function
flip.isra.11:
.LFB2878:
	.loc 1 1409 0
	.cfi_startproc
.LVL538:
	stp	x29, x30, [sp, -32]!
	.cfi_def_cfa_offset 32
	.cfi_offset 29, -32
	.cfi_offset 30, -24
	.loc 1 1413 0
	sxtw	x2, w1
	.loc 1 1409 0
	add	x29, sp, 0
	.cfi_def_cfa_register 29
	stp	x19, x20, [sp, 16]
	.cfi_offset 19, -16
	.cfi_offset 20, -8
	.loc 1 1409 0
	mov	x20, x0
	.loc 1 1411 0
	ldr	w19, [x0, 72]
	.loc 1 1413 0
	ldr	x0, [x0]
.LVL539:
.LBB1446:
.LBB1447:
.LBB1448:
.LBB1449:
	.file 10 "./include/linux/dma-mapping.h"
	.loc 10 266 0
	cbz	x0, .L639
	ldr	x3, [x0, 648]
	.loc 10 268 0
	adrp	x4, dummy_dma_ops
	add	x4, x4, :lo12:dummy_dma_ops
	cmp	x3, 0
	csel	x3, x4, x3, eq
.L637:
.LBE1449:
.LBE1448:
	.loc 10 434 0
	ldr	x5, [x3, 88]
	sxtw	x19, w19
	cbz	x5, .L638
.LBE1447:
.LBE1446:
	.loc 1 1413 0
	add	x4, x19, x19, lsl 1
.LBB1455:
.LBB1452:
	.loc 10 435 0
	mov	w3, 1
.LBE1452:
.LBE1455:
	.loc 1 1413 0
	add	x4, x20, x4, lsl 3
.LBB1456:
.LBB1453:
	.loc 10 435 0
	ldr	x1, [x4, 32]
	blr	x5
.LVL540:
.L638:
.LBE1453:
.LBE1456:
	.loc 1 1414 0
	ldr	x5, [x20, 8]
.LBB1457:
.LBB1458:
	.file 11 "drivers/gpu/drm/rockchip/ebc-dev/tcon/ebc_tcon.h"
	.loc 11 57 0
	mov	w4, 0
	mov	w3, 0
	mov	w2, 0
	mov	x0, x5
	mov	w1, 0
.LBE1458:
.LBE1457:
	.loc 1 1415 0
	add	x19, x19, x19, lsl 1
.LBB1461:
.LBB1459:
	.loc 11 57 0
	ldr	x5, [x5, 64]
.LBE1459:
.LBE1461:
	.loc 1 1415 0
	add	x19, x20, x19, lsl 3
.LBB1462:
.LBB1460:
	.loc 11 57 0
	blr	x5
.LVL541:
.LBE1460:
.LBE1462:
	.loc 1 1415 0
	ldr	x1, [x20, 8]
.LBB1463:
.LBB1464:
	.loc 11 62 0
	mov	w2, 0
	mov	x0, x1
	ldr	x3, [x1, 72]
	ldr	w1, [x19, 32]
	blr	x3
.LVL542:
.LBE1464:
.LBE1463:
	.loc 1 1416 0
	ldr	x2, [x20, 8]
.LBB1465:
.LBB1466:
	.loc 11 77 0
	mov	w1, 1
	mov	x0, x2
	ldr	x2, [x2, 96]
	blr	x2
.LVL543:
.LBE1466:
.LBE1465:
	.loc 1 1417 0
	ldr	w1, [x20, 72]
	mov	w0, 1
	sub	w0, w0, w1
	str	w0, [x20, 72]
	.loc 1 1418 0
	ldp	x19, x20, [sp, 16]
.LVL544:
	ldp	x29, x30, [sp], 32
	.cfi_remember_state
	.cfi_restore 30
	.cfi_restore 29
	.cfi_restore 19
	.cfi_restore 20
	.cfi_def_cfa 31, 0
	ret
.LVL545:
	.p2align 3
.L639:
	.cfi_restore_state
.LBB1467:
.LBB1454:
.LBB1451:
.LBB1450:
	.loc 10 268 0
	adrp	x3, dummy_dma_ops
	add	x3, x3, :lo12:dummy_dma_ops
	b	.L637
.LBE1450:
.LBE1451:
.LBE1454:
.LBE1467:
	.cfi_endproc
.LFE2878:
	.size	flip.isra.11, .-flip.isra.11
	.align	2
	.p2align 3,,7
	.type	ebc_frame_start, %function
ebc_frame_start:
.LFB2830:
	.loc 1 1427 0
	.cfi_startproc
.LVL546:
	stp	x29, x30, [sp, -48]!
	.cfi_def_cfa_offset 48
	.cfi_offset 29, -48
	.cfi_offset 30, -40
	add	x29, sp, 0
	.cfi_def_cfa_register 29
	stp	x19, x20, [sp, 16]
	.cfi_offset 19, -32
	.cfi_offset 20, -24
	.loc 1 1429 0
	add	x19, x0, 184
	.loc 1 1427 0
	str	x21, [sp, 32]
	.cfi_offset 21, -16
	.loc 1 1427 0
	mov	x20, x0
	.loc 1 1428 0
	add	x21, x0, 24
	.loc 1 1434 0
	ldr	x1, [x19, 224]
	ldr	w0, [x1, 40]
.LVL547:
	cmp	w0, 16
	bgt	.L646
	cmp	w0, 7
	bge	.L647
	cbz	w0, .L648
	cmp	w0, 1
	bne	.L645
	.loc 1 1436 0
	ldr	x0, [x19, 184]
	mov	x4, x19
	ldp	x1, x2, [x19, 144]
	ldr	x3, [x19, 168]
	bl	get_overlay_image
.LVL548:
	.loc 1 1441 0
	ldr	w0, [x19, 52]
	cbz	w0, .L650
.LBB1468:
.LBB1469:
	.loc 1 1422 0
	str	wzr, [x21, 72]
	.loc 1 1423 0
	mov	x0, x21
	ldr	w1, [x20, 208]
	bl	flip.isra.11
.LVL549:
.LBE1469:
.LBE1468:
	.loc 1 1443 0
	ldp	x1, x2, [x19, 144]
	mov	x4, x19
	ldr	x3, [x19, 168]
	ldr	x0, [x19, 192]
	bl	get_overlay_image
.LVL550:
	.loc 1 1511 0
	ldr	x21, [sp, 32]
	ldp	x19, x20, [sp, 16]
.LVL551:
	ldp	x29, x30, [sp], 48
	.cfi_remember_state
	.cfi_restore 20
	.cfi_restore 19
	.cfi_restore 21
	.cfi_restore 29
	.cfi_restore 30
	.cfi_def_cfa 31, 0
	ret
.LVL552:
	.p2align 3
.L646:
	.cfi_restore_state
	.loc 1 1434 0
	sub	w0, w0, #22
	cmp	w0, 1
	bhi	.L645
.L648:
	.loc 1 1456 0
	ldr	x0, [x19, 184]
	mov	x4, x19
	ldp	x1, x2, [x19, 144]
	ldr	x3, [x19, 168]
	bl	get_auto_image
.LVL553:
	.loc 1 1461 0
	ldr	w0, [x19, 52]
	cbz	w0, .L652
.LBB1470:
.LBB1471:
	.loc 1 1422 0
	str	wzr, [x21, 72]
	.loc 1 1423 0
	mov	x0, x21
	ldr	w1, [x20, 208]
	bl	flip.isra.11
.LVL554:
.LBE1471:
.LBE1470:
	.loc 1 1463 0
	ldp	x1, x2, [x19, 144]
	mov	x4, x19
	ldr	x3, [x19, 168]
	ldr	x0, [x19, 192]
	bl	get_auto_image
.LVL555:
	.loc 1 1511 0
	ldr	x21, [sp, 32]
	ldp	x19, x20, [sp, 16]
.LVL556:
	ldp	x29, x30, [sp], 48
	.cfi_remember_state
	.cfi_restore 20
	.cfi_restore 19
	.cfi_restore 21
	.cfi_restore 29
	.cfi_restore 30
	.cfi_def_cfa 31, 0
	ret
.LVL557:
	.p2align 3
.L645:
	.cfi_restore_state
	.loc 1 1499 0
	ldr	x2, [x19, 216]
	.loc 1 1497 0
	mov	x3, x19
	.loc 1 1496 0
	ldrb	w0, [x19, 48]
	str	w0, [x19, 56]
	.loc 1 1497 0
	ldr	x0, [x19, 184]
	ldr	x2, [x2, 16]
	ldr	x1, [x1, 16]
	bl	direct_mode_data_change
.LVL558:
.LBB1472:
.LBB1473:
	.loc 1 1422 0
	str	wzr, [x21, 72]
	.loc 1 1423 0
	mov	x0, x21
	ldr	w1, [x20, 208]
	bl	flip.isra.11
.LVL559:
.LBE1473:
.LBE1472:
	.loc 1 1502 0
	ldr	w0, [x19, 56]
	.loc 1 1503 0
	mov	x3, x19
	.loc 1 1504 0
	ldp	x2, x1, [x19, 216]
	.loc 1 1502 0
	sub	w0, w0, #1
	str	w0, [x19, 56]
	.loc 1 1503 0
	ldr	x0, [x19, 192]
	ldr	x1, [x1, 16]
	ldr	x2, [x2, 16]
	bl	direct_mode_data_change
.LVL560:
	.loc 1 1511 0
	ldr	x21, [sp, 32]
	ldp	x19, x20, [sp, 16]
.LVL561:
	ldp	x29, x30, [sp], 48
	.cfi_remember_state
	.cfi_restore 30
	.cfi_restore 29
	.cfi_restore 21
	.cfi_restore 19
	.cfi_restore 20
	.cfi_def_cfa 31, 0
	ret
.LVL562:
	.p2align 3
.L647:
	.cfi_restore_state
	.loc 1 1486 0
	ldr	x2, [x19, 216]
	.loc 1 1484 0
	mov	x3, x19
	.loc 1 1483 0
	ldrb	w0, [x19, 48]
	str	w0, [x19, 56]
	.loc 1 1484 0
	ldr	x0, [x19, 184]
	ldr	x2, [x2, 16]
	ldr	x1, [x1, 16]
	bl	direct_mode_data_change_part
.LVL563:
.LBB1474:
.LBB1475:
	.loc 1 1422 0
	str	wzr, [x21, 72]
	.loc 1 1423 0
	mov	x0, x21
	ldr	w1, [x20, 208]
	bl	flip.isra.11
.LVL564:
.LBE1475:
.LBE1474:
	.loc 1 1489 0
	ldr	w0, [x19, 56]
	.loc 1 1490 0
	mov	x3, x19
	.loc 1 1491 0
	ldp	x2, x1, [x19, 216]
	.loc 1 1489 0
	sub	w0, w0, #1
	str	w0, [x19, 56]
	.loc 1 1490 0
	ldr	x0, [x19, 192]
	ldr	x1, [x1, 16]
	ldr	x2, [x2, 16]
	bl	direct_mode_data_change_part
.LVL565:
	.loc 1 1511 0
	ldr	x21, [sp, 32]
	ldp	x19, x20, [sp, 16]
.LVL566:
	ldp	x29, x30, [sp], 48
	.cfi_remember_state
	.cfi_restore 20
	.cfi_restore 19
	.cfi_restore 21
	.cfi_restore 29
	.cfi_restore 30
	.cfi_def_cfa 31, 0
	ret
.LVL567:
	.p2align 3
.L652:
	.cfi_restore_state
	.loc 1 1469 0
	ldr	x0, [x19, 104]
	adrp	x2, .LANCHOR3
	adrp	x1, .LC21
	add	x2, x2, :lo12:.LANCHOR3
	add	x1, x1, :lo12:.LC21
	bl	_dev_info
.LVL568:
	.loc 1 1470 0
	str	wzr, [x19, 44]
	.loc 1 1511 0
	ldp	x19, x20, [sp, 16]
.LVL569:
	ldr	x21, [sp, 32]
	ldp	x29, x30, [sp], 48
	.cfi_remember_state
	.cfi_restore 20
	.cfi_restore 19
	.cfi_restore 21
	.cfi_restore 29
	.cfi_restore 30
	.cfi_def_cfa 31, 0
	ret
.LVL570:
	.p2align 3
.L650:
	.cfi_restore_state
	.loc 1 1449 0
	ldr	x0, [x19, 104]
	adrp	x2, .LANCHOR3
	adrp	x1, .LC20
	add	x2, x2, :lo12:.LANCHOR3
	add	x1, x1, :lo12:.LC20
	bl	_dev_info
.LVL571:
	.loc 1 1450 0
	str	wzr, [x19, 44]
	.loc 1 1511 0
	ldp	x19, x20, [sp, 16]
.LVL572:
	ldr	x21, [sp, 32]
	ldp	x29, x30, [sp], 48
	.cfi_restore 20
	.cfi_restore 19
	.cfi_restore 21
	.cfi_restore 29
	.cfi_restore 30
	.cfi_def_cfa 31, 0
	ret
	.cfi_endproc
.LFE2830:
	.size	ebc_frame_start, .-ebc_frame_start
	.align	2
	.p2align 3,,7
	.type	ebc_power_set.part.13, %function
ebc_power_set.part.13:
.LFB2880:
	.loc 1 183 0
	.cfi_startproc
.LVL573:
	stp	x29, x30, [sp, -32]!
	.cfi_def_cfa_offset 32
	.cfi_offset 29, -32
	.cfi_offset 30, -24
	add	x29, sp, 0
	.cfi_def_cfa_register 29
	stp	x19, x20, [sp, 16]
	.cfi_offset 19, -16
	.cfi_offset 20, -8
	.loc 1 183 0
	mov	x19, x0
	.loc 1 200 0
	str	w1, [x0, 384]
	.loc 1 201 0
	ldr	x1, [x0, 8]
.LVL574:
.LBB1476:
.LBB1477:
	.loc 11 51 0
	mov	x0, x1
.LVL575:
	ldr	x1, [x1, 56]
	blr	x1
.LVL576:
.LBE1477:
.LBE1476:
	.loc 1 202 0
	ldr	x2, [x19, 16]
.LBB1478:
.LBB1479:
	.loc 3 35 0
	mov	w1, 0
	mov	x0, x2
	ldr	x2, [x2, 32]
	blr	x2
.LVL577:
.LBE1479:
.LBE1478:
	.loc 1 203 0
	ldr	w0, [x19, 624]
	cbnz	w0, .L663
	.loc 1 207 0
	ldr	x0, [x19]
	adrp	x1, .LC22
	add	x1, x1, :lo12:.LC22
	bl	_dev_info
.LVL578:
	.loc 1 211 0
	ldp	x19, x20, [sp, 16]
.LVL579:
	ldp	x29, x30, [sp], 32
	.cfi_remember_state
	.cfi_restore 30
	.cfi_restore 29
	.cfi_restore 19
	.cfi_restore 20
	.cfi_def_cfa 31, 0
	ret
.LVL580:
	.p2align 3
.L663:
	.cfi_restore_state
	.loc 1 204 0
	str	wzr, [x19, 624]
.LBB1480:
.LBB1481:
	.loc 4 68 0
	add	x0, x19, 416
	bl	__pm_relax
.LVL581:
.LBE1481:
.LBE1480:
	.loc 1 207 0
	ldr	x0, [x19]
	adrp	x1, .LC22
	add	x1, x1, :lo12:.LC22
	bl	_dev_info
.LVL582:
	.loc 1 211 0
	ldp	x19, x20, [sp, 16]
.LVL583:
	ldp	x29, x30, [sp], 32
	.cfi_restore 20
	.cfi_restore 19
	.cfi_restore 29
	.cfi_restore 30
	.cfi_def_cfa 31, 0
	ret
	.cfi_endproc
.LFE2880:
	.size	ebc_power_set.part.13, .-ebc_power_set.part.13
	.align	2
	.p2align 3,,7
	.type	ebc_suspend, %function
ebc_suspend:
.LFB2863:
	.loc 1 3032 0
	.cfi_startproc
.LVL584:
	stp	x29, x30, [sp, -32]!
	.cfi_def_cfa_offset 32
	.cfi_offset 29, -32
	.cfi_offset 30, -24
	add	x29, sp, 0
	.cfi_def_cfa_register 29
	stp	x19, x20, [sp, 16]
	.cfi_offset 19, -16
	.cfi_offset 20, -8
.LBB1482:
.LBB1483:
	.loc 2 1181 0
	ldr	x20, [x0, 184]
.LBE1483:
.LBE1482:
	.loc 1 3036 0
	add	x19, x20, 184
	ldr	w0, [x19, 200]
.LVL585:
	cmp	w0, 1
	beq	.L667
.L665:
	.loc 1 3040 0
	mov	w0, 1
	str	w0, [x19, 620]
	.loc 1 3042 0
	ldr	x1, [x20, 16]
.LBB1484:
.LBB1485:
	.loc 3 40 0
	mov	x0, x1
	ldr	x1, [x1, 40]
	blr	x1
.LVL586:
.LBE1485:
.LBE1484:
	.loc 1 3043 0
	ldr	x0, [x19, 104]
	adrp	x1, .LC24
	add	x1, x1, :lo12:.LC24
	bl	_dev_info
.LVL587:
	.loc 1 3046 0
	mov	w0, 0
	ldp	x19, x20, [sp, 16]
	ldp	x29, x30, [sp], 32
	.cfi_remember_state
	.cfi_restore 30
	.cfi_restore 29
	.cfi_restore 19
	.cfi_restore 20
	.cfi_def_cfa 31, 0
	ret
	.p2align 3
.L667:
	.cfi_restore_state
	.loc 1 3037 0
	ldr	x0, [x19, 104]
	adrp	x2, .LANCHOR3
	add	x2, x2, :lo12:.LANCHOR3
	adrp	x1, .LC23
	add	x2, x2, 16
	add	x1, x1, :lo12:.LC23
	bl	_dev_info
.LVL588:
.LBB1486:
.LBB1487:
	mov	w1, 0
	mov	x0, x20
	bl	ebc_power_set.part.13
.LVL589:
	b	.L665
.LBE1487:
.LBE1486:
	.cfi_endproc
.LFE2863:
	.size	ebc_suspend, .-ebc_suspend
	.align	2
	.p2align 3,,7
	.type	check_black_percent.isra.15, %function
check_black_percent.isra.15:
.LFB2882:
	.loc 1 1745 0
	.cfi_startproc
	.loc 1 1755 0
	cmp	w1, 32
	lsl	w3, w2, 1
	csel	w2, w3, w2, eq
	.loc 1 1759 0
	mov	w1, 26215
	movk	w1, 0x6666, lsl 16
	.loc 1 1760 0
	cmp	w2, 0
	add	w5, w2, 7
	.loc 1 1759 0
	smull	x4, w2, w1
	.loc 1 1760 0
	csel	w5, w5, w2, lt
	asr	w5, w5, 3
	cmp	w5, 0
	.loc 1 1759 0
	asr	x4, x4, 34
	sub	w4, w4, w2, asr 31
.LVL590:
	.loc 1 1760 0
	ble	.L670
	mov	x1, 0
	mov	w2, 0
.LVL591:
	b	.L673
	.p2align 3
.L681:
	cmp	w5, w1
	ble	.L670
.L673:
	.loc 1 1762 0
	ldr	x3, [x0, x1, lsl 3]
	add	x1, x1, 1
	.loc 1 1763 0
	cmp	x3, 0
	cinc	w2, w2, ne
	.loc 1 1764 0
	cmp	w4, w2, lsl 3
	bge	.L681
	.loc 1 1765 0
	mov	w0, 0
	ret
.L670:
	.loc 1 1745 0
	stp	x29, x30, [sp, -16]!
	.cfi_def_cfa_offset 16
	.cfi_offset 29, -16
	.cfi_offset 30, -8
	.loc 1 1768 0
	adrp	x0, .LC25
	add	x0, x0, :lo12:.LC25
	.loc 1 1745 0
	add	x29, sp, 0
	.cfi_def_cfa_register 29
	.loc 1 1768 0
	bl	printk
.LVL592:
	.loc 1 1770 0
	mov	w0, 1
	.loc 1 1771 0
	ldp	x29, x30, [sp], 16
	.cfi_restore 30
	.cfi_restore 29
	.cfi_def_cfa 31, 0
	ret
	.cfi_endproc
.LFE2882:
	.size	check_black_percent.isra.15, .-check_black_percent.isra.15
	.align	2
	.p2align 3,,7
	.type	ebc_probe, %function
ebc_probe:
.LFB2861:
	.loc 1 2896 0
	.cfi_startproc
.LVL593:
	stp	x29, x30, [sp, -208]!
	.cfi_def_cfa_offset 208
	.cfi_offset 29, -208
	.cfi_offset 30, -200
.LBB1632:
.LBB1633:
	.loc 2 711 0
	mov	w2, 32960
	movk	w2, 0x60, lsl 16
.LBE1633:
.LBE1632:
	.loc 1 2896 0
	add	x29, sp, 0
	.cfi_def_cfa_register 29
	stp	x21, x22, [sp, 32]
	.cfi_offset 21, -176
	.cfi_offset 22, -168
	.loc 1 2897 0
	add	x22, x0, 16
	.loc 1 2896 0
	stp	x23, x24, [sp, 48]
	.cfi_offset 23, -160
	.cfi_offset 24, -152
	adrp	x23, __stack_chk_guard
	stp	x19, x20, [sp, 16]
	add	x0, x23, :lo12:__stack_chk_guard
.LVL594:
	stp	x25, x26, [sp, 64]
	stp	x27, x28, [sp, 80]
	.cfi_offset 19, -192
	.cfi_offset 20, -184
	.cfi_offset 25, -144
	.cfi_offset 26, -136
	.cfi_offset 27, -128
	.cfi_offset 28, -120
	.loc 1 2896 0
	ldr	x1, [x0]
	str	x1, [x29, 200]
	mov	x1,0
.LBB1635:
.LBB1634:
	.loc 2 711 0
	mov	x0, x22
	mov	x1, 824
	bl	devm_kmalloc
.LVL595:
.LBE1634:
.LBE1635:
	.loc 1 2912 0
	cbz	x0, .L732
	.loc 1 2916 0
	adrp	x24, .LANCHOR0
	mov	x20, x0
	.loc 1 2918 0
	adrp	x1, .LC26
	mov	w2, 0
	.loc 1 2916 0
	str	x0, [x24, #:lo12:.LANCHOR0]
	.loc 1 2918 0
	add	x1, x1, :lo12:.LC26
	ldr	x0, [x22, 752]
	.loc 1 2915 0
	str	x22, [x20]
	.loc 1 2918 0
	bl	of_parse_phandle
.LVL596:
	.loc 1 2919 0
	cbz	x0, .L768
	.loc 1 2924 0
	bl	of_find_device_by_node
.LVL597:
	.loc 1 2926 0
	cbz	x0, .L686
.LBB1636:
.LBB1637:
.LBB1638:
	.loc 2 1181 0
	ldr	x0, [x0, 200]
.LVL598:
.LBE1638:
.LBE1637:
.LBE1636:
	.loc 1 2929 0
	str	x0, [x20, 8]
	.loc 1 2930 0
	cbz	x0, .L686
	.loc 1 2932 0
	adrp	x1, frame_done_callback
	add	x1, x1, :lo12:frame_done_callback
	str	x1, [x0, 104]
	.loc 1 2934 0
	add	x2, x29, 96
	adrp	x1, .LC28
	add	x1, x1, :lo12:.LC28
	ldr	x0, [x22, 752]
	bl	of_get_property
.LVL599:
	mov	x21, x0
.LVL600:
	.loc 1 2935 0
	ldrsw	x0, [x29, 96]
.LVL601:
	lsr	x0, x0, 2
.LVL602:
	str	w0, [x29, 96]
.LVL603:
	.loc 1 2936 0
	cmp	w0, 0
	beq	.L687
	.loc 1 2941 0 discriminator 1
	mov	w19, 0
.LVL604:
	bgt	.L755
	b	.L689
	.p2align 3
.L690:
	.loc 1 2949 0
	bl	of_find_i2c_device_by_node
.LVL605:
	.loc 1 2951 0
	cbz	x0, .L769
.LBB1639:
.LBB1640:
.LBB1641:
	.loc 2 1181 0
	ldr	x0, [x0, 216]
.LVL606:
.LBE1641:
.LBE1640:
.LBE1639:
	.loc 1 2956 0
	str	x0, [x20, 16]
	.loc 1 2957 0
	cbnz	x0, .L770
	.loc 1 2941 0 discriminator 2
	ldr	w0, [x29, 96]
	add	w19, w19, 1
.LVL607:
	cmp	w0, w19
	ble	.L694
.L755:
	ldr	w0, [x21], 4
	.loc 1 2943 0
	rev	w0, w0
	bl	of_find_node_by_phandle
.LVL608:
	.loc 1 2944 0
	cbnz	x0, .L690
	.loc 1 2945 0
	adrp	x1, .LC30
	mov	x0, x22
	add	x1, x1, :lo12:.LC30
	.loc 1 2946 0
	mov	w25, -19
	.loc 1 2945 0
	bl	_dev_err
.LVL609:
	.p2align 2
.L682:
	.loc 1 3022 0
	add	x23, x23, :lo12:__stack_chk_guard
	mov	w0, w25
.LVL610:
	ldr	x2, [x29, 200]
	ldr	x1, [x23]
	eor	x1, x2, x1
	cbnz	x1, .L771
	ldp	x19, x20, [sp, 16]
.LVL611:
	ldp	x21, x22, [sp, 32]
.LVL612:
	ldp	x23, x24, [sp, 48]
.LVL613:
	ldp	x25, x26, [sp, 64]
.LVL614:
	ldp	x27, x28, [sp, 80]
.LVL615:
	ldp	x29, x30, [sp], 208
	.cfi_remember_state
	.cfi_restore 30
	.cfi_restore 29
	.cfi_restore 27
	.cfi_restore 28
	.cfi_restore 25
	.cfi_restore 26
	.cfi_restore 23
	.cfi_restore 24
	.cfi_restore 21
	.cfi_restore 22
	.cfi_restore 19
	.cfi_restore 20
	.cfi_def_cfa 31, 0
	ret
.LVL616:
	.p2align 3
.L770:
	.cfi_restore_state
	.loc 1 2958 0
	adrp	x1, .LC32
	mov	w2, w19
	add	x1, x1, :lo12:.LC32
	mov	x0, x22
	bl	_dev_info
.LVL617:
.L689:
	.loc 1 2963 0
	ldr	x0, [x20, 16]
	cbz	x0, .L694
	.loc 1 2969 0
	add	x19, x20, 184
.LVL618:
	.loc 1 2971 0
	add	x21, x20, 24
.LVL619:
	.loc 1 2969 0
	str	x22, [x19, 104]
.LBB1642:
.LBB1643:
.LBB1644:
.LBB1645:
.LBB1646:
	.file 12 "./include/linux/of.h"
	.loc 12 499 0
	adrp	x1, .LC34
.LBE1646:
.LBE1645:
.LBE1644:
.LBE1643:
.LBE1642:
	.loc 1 2971 0
	str	x22, [x20, 24]
.LBB1716:
.LBB1713:
.LBB1653:
.LBB1650:
.LBB1647:
	.loc 12 499 0
	mov	x4, 0
.LBE1647:
.LBE1650:
.LBE1653:
.LBE1713:
.LBE1716:
	.loc 1 2972 0
	ldr	x2, [x20, 8]
.LBB1717:
.LBB1714:
.LBB1654:
.LBB1651:
.LBB1648:
	.loc 12 499 0
	add	x1, x1, :lo12:.LC34
.LBE1648:
.LBE1651:
.LBE1654:
.LBE1714:
.LBE1717:
	.loc 1 2973 0
	stp	x2, x0, [x21, 8]
.LBB1718:
.LBB1715:
.LBB1655:
.LBB1652:
.LBB1649:
	.loc 12 499 0
	mov	x3, 1
	ldr	x0, [x22, 752]
	add	x2, x20, 100
	bl	of_property_read_variable_u32_array
.LVL620:
	.loc 12 501 0
	tbnz	w0, #31, .L696
.LBE1649:
.LBE1652:
.LBE1655:
.LBB1656:
.LBB1657:
.LBB1658:
	.loc 12 499 0
	ldr	x0, [x22, 752]
	adrp	x1, .LC58
	mov	x4, 0
	mov	x3, 1
	add	x2, x20, 104
	add	x1, x1, :lo12:.LC58
	bl	of_property_read_variable_u32_array
.LVL621:
	.loc 12 501 0
	tbnz	w0, #31, .L696
.LBE1658:
.LBE1657:
.LBE1656:
.LBB1659:
.LBB1660:
.LBB1661:
	.loc 12 499 0
	ldr	x0, [x22, 752]
	adrp	x1, .LC59
	mov	x4, 0
	mov	x3, 1
	add	x2, x20, 108
	add	x1, x1, :lo12:.LC59
	bl	of_property_read_variable_u32_array
.LVL622:
	.loc 12 501 0
	tbnz	w0, #31, .L696
.LBE1661:
.LBE1660:
.LBE1659:
.LBB1662:
.LBB1663:
.LBB1664:
	.loc 12 499 0
	ldr	x0, [x22, 752]
	adrp	x1, .LC60
	mov	x4, 0
	mov	x3, 1
	add	x2, x20, 112
	add	x1, x1, :lo12:.LC60
	bl	of_property_read_variable_u32_array
.LVL623:
	.loc 12 501 0
	tbnz	w0, #31, .L696
.LBE1664:
.LBE1663:
.LBE1662:
.LBB1665:
.LBB1666:
.LBB1667:
	.loc 12 499 0
	ldr	x0, [x22, 752]
	adrp	x1, .LC61
	mov	x4, 0
	mov	x3, 1
	add	x2, x20, 128
	add	x1, x1, :lo12:.LC61
	bl	of_property_read_variable_u32_array
.LVL624:
	.loc 12 501 0
	tbnz	w0, #31, .L696
.LBE1667:
.LBE1666:
.LBE1665:
.LBB1668:
.LBB1669:
.LBB1670:
	.loc 12 499 0
	ldr	x0, [x22, 752]
	adrp	x1, .LC62
	mov	x4, 0
	mov	x3, 1
	add	x2, x20, 132
	add	x1, x1, :lo12:.LC62
	bl	of_property_read_variable_u32_array
.LVL625:
	.loc 12 501 0
	tbnz	w0, #31, .L696
.LBE1670:
.LBE1669:
.LBE1668:
.LBB1671:
.LBB1672:
.LBB1673:
	.loc 12 499 0
	ldr	x0, [x22, 752]
	adrp	x1, .LC63
	mov	x4, 0
	mov	x3, 1
	add	x2, x20, 136
	add	x1, x1, :lo12:.LC63
	bl	of_property_read_variable_u32_array
.LVL626:
	.loc 12 501 0
	tbnz	w0, #31, .L696
.LBE1673:
.LBE1672:
.LBE1671:
.LBB1674:
.LBB1675:
.LBB1676:
	.loc 12 499 0
	ldr	x0, [x22, 752]
	adrp	x1, .LC64
	mov	x4, 0
	mov	x3, 1
	add	x2, x20, 140
	add	x1, x1, :lo12:.LC64
	bl	of_property_read_variable_u32_array
.LVL627:
	.loc 12 501 0
	tbnz	w0, #31, .L696
.LBE1676:
.LBE1675:
.LBE1674:
.LBB1677:
.LBB1678:
.LBB1679:
	.loc 12 499 0
	ldr	x0, [x22, 752]
	adrp	x1, .LC65
	mov	x4, 0
	mov	x3, 1
	add	x2, x20, 144
	add	x1, x1, :lo12:.LC65
	bl	of_property_read_variable_u32_array
.LVL628:
	.loc 12 501 0
	tbnz	w0, #31, .L696
.LBE1679:
.LBE1678:
.LBE1677:
.LBB1680:
.LBB1681:
.LBB1682:
	.loc 12 499 0
	ldr	x0, [x22, 752]
	adrp	x1, .LC66
	mov	x4, 0
	mov	x3, 1
	add	x2, x20, 148
	add	x1, x1, :lo12:.LC66
	bl	of_property_read_variable_u32_array
.LVL629:
	.loc 12 501 0
	tbnz	w0, #31, .L696
.LBE1682:
.LBE1681:
.LBE1680:
.LBB1683:
.LBB1684:
.LBB1685:
	.loc 12 499 0
	ldr	x0, [x22, 752]
	adrp	x1, .LC67
	mov	x4, 0
	mov	x3, 1
	add	x2, x20, 152
	add	x1, x1, :lo12:.LC67
	bl	of_property_read_variable_u32_array
.LVL630:
	.loc 12 501 0
	tbnz	w0, #31, .L696
.LBE1685:
.LBE1684:
.LBE1683:
.LBB1686:
.LBB1687:
.LBB1688:
	.loc 12 499 0
	ldr	x0, [x22, 752]
	adrp	x1, .LC68
	mov	x4, 0
	mov	x3, 1
	add	x2, x20, 156
	add	x1, x1, :lo12:.LC68
	bl	of_property_read_variable_u32_array
.LVL631:
	.loc 12 501 0
	tbnz	w0, #31, .L696
.LBE1688:
.LBE1687:
.LBE1686:
.LBB1689:
.LBB1690:
.LBB1691:
	.loc 12 499 0
	ldr	x0, [x22, 752]
	adrp	x1, .LC69
	mov	x4, 0
	mov	x3, 1
	add	x2, x20, 160
	add	x1, x1, :lo12:.LC69
	bl	of_property_read_variable_u32_array
.LVL632:
	.loc 12 501 0
	tbnz	w0, #31, .L696
.LBE1691:
.LBE1690:
.LBE1689:
.LBB1692:
.LBB1693:
.LBB1694:
	.loc 12 499 0
	ldr	x0, [x22, 752]
	adrp	x1, .LC70
	mov	x4, 0
	mov	x3, 1
	add	x2, x20, 164
	add	x1, x1, :lo12:.LC70
	bl	of_property_read_variable_u32_array
.LVL633:
	.loc 12 501 0
	tbnz	w0, #31, .L696
.LBE1694:
.LBE1693:
.LBE1692:
.LBB1695:
.LBB1696:
.LBB1697:
	.loc 12 499 0
	ldr	x0, [x22, 752]
	adrp	x1, .LC71
	mov	x4, 0
	mov	x3, 1
	add	x2, x20, 168
	add	x1, x1, :lo12:.LC71
	bl	of_property_read_variable_u32_array
.LVL634:
	.loc 12 501 0
	tbnz	w0, #31, .L696
.LBE1697:
.LBE1696:
.LBE1695:
.LBB1698:
.LBB1699:
.LBB1700:
	.loc 12 499 0
	ldr	x0, [x22, 752]
	adrp	x1, .LC72
	mov	x4, 0
	mov	x3, 1
	add	x2, x20, 172
	add	x1, x1, :lo12:.LC72
	bl	of_property_read_variable_u32_array
.LVL635:
	.loc 12 501 0
	tbz	w0, #31, .L722
.LBE1700:
.LBE1699:
.LBE1698:
	.loc 1 2240 0
	str	wzr, [x21, 148]
.L722:
.LBB1701:
.LBB1702:
.LBB1703:
	.loc 12 499 0
	ldr	x0, [x22, 752]
	adrp	x1, .LC35
	mov	x4, 0
	mov	x3, 1
	add	x2, x20, 176
	add	x1, x1, :lo12:.LC35
	bl	of_property_read_variable_u32_array
.LVL636:
	.loc 12 501 0
	tbz	w0, #31, .L723
.LBE1703:
.LBE1702:
.LBE1701:
	.loc 1 2243 0
	str	wzr, [x21, 152]
.L723:
.LBB1704:
.LBB1705:
.LBB1706:
	.loc 12 499 0
	ldr	x0, [x22, 752]
	adrp	x1, .LC36
	mov	x4, 0
	mov	x3, 1
	add	x2, x20, 180
	add	x1, x1, :lo12:.LC36
	bl	of_property_read_variable_u32_array
.LVL637:
	.loc 12 501 0
	tbz	w0, #31, .L724
.LBE1706:
.LBE1705:
.LBE1704:
	.loc 1 2246 0
	str	wzr, [x21, 156]
.L724:
.LBB1707:
.LBB1708:
.LBB1709:
	.loc 12 499 0
	ldr	x0, [x22, 752]
	adrp	x1, .LC37
	mov	x4, 0
	mov	x3, 1
	add	x2, x20, 116
	add	x1, x1, :lo12:.LC37
	bl	of_property_read_variable_u32_array
.LVL638:
	.loc 12 501 0
	tbz	w0, #31, .L725
.LBE1709:
.LBE1708:
.LBE1707:
	.loc 1 2249 0
	str	wzr, [x21, 92]
.L725:
.LBB1710:
.LBB1711:
.LBB1712:
	.loc 12 499 0
	ldr	x0, [x22, 752]
	adrp	x1, .LC38
	mov	x4, 0
	mov	x3, 1
	add	x2, x20, 120
	add	x1, x1, :lo12:.LC38
	bl	of_property_read_variable_u32_array
.LVL639:
	.loc 12 501 0
	tbz	w0, #31, .L726
.LBE1712:
.LBE1711:
.LBE1710:
	.loc 1 2252 0
	str	wzr, [x21, 96]
.L726:
.LBE1715:
.LBE1718:
	.loc 1 2981 0
	ldr	w0, [x21, 88]
.LBB1719:
.LBB1720:
	.loc 1 2704 0
	mov	w2, 0
.LBE1720:
.LBE1719:
	.loc 1 2981 0
	str	w0, [x19, 68]
	.loc 1 2982 0
	ldr	w1, [x21, 84]
	str	w1, [x19, 72]
	.loc 1 2985 0
	tst	x1, 15
	.loc 1 2983 0
	mul	w0, w0, w1
	.loc 1 2985 0
	cset	w1, eq
	str	w1, [x19, 88]
.LBB1734:
.LBB1729:
	.loc 1 2704 0
	adrp	x1, .LC39
	add	x1, x1, :lo12:.LC39
.LBE1729:
.LBE1734:
	.loc 1 2983 0
	lsr	w3, w0, 1
	.loc 1 2984 0
	lsr	w0, w0, 2
	stp	w3, w0, [x19, 20]
.LBB1735:
.LBB1730:
	.loc 1 2695 0
	ldr	x26, [x20]
.LVL640:
	.loc 1 2704 0
	ldr	x0, [x26, 752]
	bl	of_parse_phandle
.LVL641:
	.loc 1 2705 0
	cbz	x0, .L733
	.loc 1 2708 0
	add	x2, x29, 104
	mov	w1, 0
	bl	of_address_to_resource
.LVL642:
	mov	w25, w0
	.loc 1 2710 0
	cbnz	w0, .L772
.LBB1721:
.LBB1722:
	.file 13 "./include/linux/ioport.h"
	.loc 13 204 0
	ldp	x1, x2, [x29, 104]
.LBE1722:
.LBE1721:
	.loc 1 2715 0
	str	x1, [x20, 184]
	.loc 1 2718 0
	mov	x3, 1
	mov	x0, x26
.LBB1724:
.LBB1723:
	.loc 13 204 0
	add	x2, x2, 1
	sub	x2, x2, x1
.LBE1723:
.LBE1724:
	.loc 1 2716 0
	str	w2, [x19, 16]
	.loc 1 2718 0
	sxtw	x2, w2
	bl	devm_memremap
.LVL643:
	str	x0, [x19, 8]
	.loc 1 2720 0
	cbz	x0, .L704
	.loc 1 2728 0
	mov	x1, x0
	ldr	w2, [x19, 16]
	ldr	x0, [x20, 184]
	mov	w4, 4
	mov	w3, 4194304
	bl	ebc_buf_init
.LVL644:
	.loc 1 2729 0
	cbnz	w0, .L704
	.loc 1 2734 0
	ldr	x1, [x19, 8]
	.loc 1 2735 0
	mov	x6, 1048576
	.loc 1 2734 0
	mov	x3, 20971520
	.loc 1 2735 0
	str	x6, [x21, 40]
	.loc 1 2734 0
	add	x8, x1, x3
	str	x8, [x21, 24]
	mov	x7, 22020096
	add	x5, x1, x7
	.loc 1 2736 0
	ldr	x2, [x20, 184]
	.loc 1 2741 0
	mov	x4, 23068672
	add	x4, x1, x4
.LBB1725:
.LBB1726:
	.loc 2 711 0
	mov	x0, x26
.LBE1726:
.LBE1725:
	.loc 1 2736 0
	add	x3, x2, x3
	str	x3, [x21, 32]
	.loc 1 2737 0
	str	x8, [x19, 184]
	.loc 1 2736 0
	add	x2, x2, x7
	.loc 1 2735 0
	str	x6, [x21, 64]
	.loc 1 2736 0
	stp	x5, x2, [x21, 48]
	.loc 1 2742 0
	mov	x2, 27262976
	add	x2, x1, x2
	stp	x4, x2, [x19, 144]
	.loc 1 2743 0
	mov	x2, 31457280
	add	x2, x1, x2
	.loc 1 2737 0
	str	x5, [x19, 192]
	.loc 1 2743 0
	str	x2, [x19, 160]
	.loc 1 2744 0
	mov	x2, 35651584
	add	x1, x1, x2
	str	x1, [x19, 128]
	.loc 1 2747 0
	ldp	w2, w1, [x21, 84]
.LBB1728:
.LBB1727:
	.loc 2 711 0
	mul	w1, w2, w1
	mov	w2, 32960
	movk	w2, 0x60, lsl 16
	bl	devm_kmalloc
.LVL645:
.LBE1727:
.LBE1728:
	.loc 1 2747 0
	str	x0, [x19, 168]
	.loc 1 2748 0
	cbz	x0, .L704
	.loc 1 2750 0
	ldp	w2, w1, [x21, 84]
	mul	w2, w2, w1
	mov	w1, 0
	bl	memset
.LVL646:
	.loc 1 2751 0
	ldrsw	x2, [x19, 20]
	mov	w1, 255
	ldr	x0, [x19, 160]
	bl	memset
.LVL647:
.LBE1730:
.LBE1735:
.LBB1736:
.LBB1737:
	.loc 1 2652 0
	ldr	x26, [x19, 104]
.LVL648:
	.loc 1 2658 0
	adrp	x1, .LC41
	mov	w2, 0
	add	x1, x1, :lo12:.LC41
	ldr	x0, [x26, 752]
	bl	of_parse_phandle
.LVL649:
	.loc 1 2659 0
	cbz	x0, .L734
	.loc 1 2662 0
	add	x2, x29, 104
	mov	w1, 0
	bl	of_address_to_resource
.LVL650:
	mov	w25, w0
	.loc 1 2664 0
	cbz	w0, .L773
.L705:
.LBE1737:
.LBE1736:
	.loc 1 2997 0
	adrp	x1, .LC74
	mov	x0, x22
	add	x1, x1, :lo12:.LC74
	bl	_dev_err
.LVL651:
	.loc 1 2998 0
	b	.L682
.LVL652:
	.p2align 3
.L696:
	.loc 1 2979 0
	mov	w25, -22
	.loc 1 2978 0
	adrp	x1, .LC80
	mov	w2, w25
	add	x1, x1, :lo12:.LC80
	mov	x0, x22
	bl	_dev_err
.LVL653:
	.loc 1 2979 0
	b	.L682
.LVL654:
	.p2align 3
.L769:
	.loc 1 2952 0
	adrp	x1, .LC31
	mov	x0, x22
.LVL655:
	add	x1, x1, :lo12:.LC31
	.loc 1 2953 0
	mov	w25, -19
	.loc 1 2952 0
	bl	_dev_err
.LVL656:
	.loc 1 2953 0
	b	.L682
.LVL657:
	.p2align 3
.L694:
	.loc 1 2964 0
	adrp	x1, .LC33
	mov	x0, x22
	add	x1, x1, :lo12:.LC33
	.loc 1 2965 0
	mov	w25, -517
	.loc 1 2964 0
	bl	_dev_err
.LVL658:
	.loc 1 2965 0
	b	.L682
.LVL659:
	.p2align 3
.L772:
.LBB1745:
.LBB1731:
	.loc 1 2711 0
	adrp	x1, .LC40
	mov	x0, x26
	add	x1, x1, :lo12:.LC40
	bl	_dev_err
.LVL660:
.L701:
.LBE1731:
.LBE1745:
	.loc 1 2990 0
	adrp	x1, .LC73
	mov	x0, x22
	add	x1, x1, :lo12:.LC73
	bl	_dev_err
.LVL661:
	.loc 1 2991 0
	b	.L682
.LVL662:
.L773:
.LBB1746:
.LBB1742:
	.loc 1 2673 0
	mov	x0, x26
	mov	x3, 1
.LBB1738:
.LBB1739:
	.loc 13 204 0
	ldp	x1, x26, [x29, 104]
.LVL663:
.LBE1739:
.LBE1738:
	.loc 1 2670 0
	str	x1, [x19, 32]
.LBB1741:
.LBB1740:
	.loc 13 204 0
	add	x26, x26, 1
	sub	x26, x26, x1
.LBE1740:
.LBE1741:
	.loc 1 2671 0
	str	w26, [x19, 40]
	.loc 1 2673 0
	sxtw	x2, w26
	bl	devm_memremap
.LVL664:
	str	x0, [x19, 208]
	.loc 1 2675 0
	cbz	x0, .L774
	.loc 1 2680 0
	bl	epd_lut_from_mem_init
.LVL665:
	.loc 1 2681 0
	tbnz	w0, #31, .L775
.L707:
.LBE1742:
.LBE1746:
.LBB1747:
.LBB1748:
	.loc 1 2760 0
	add	x0, x20, 752
	mov	x1, 68719476704
	str	x1, [x19, 560]
	.loc 1 2764 0
	add	x24, x24, :lo12:.LANCHOR0
.LBB1749:
.LBB1750:
.LBB1751:
.LBB1752:
.LBB1753:
	.file 14 "./include/linux/compiler.h"
	.loc 14 288 0
	str	x0, [x20, 752]
.LBE1753:
.LBE1752:
.LBE1751:
.LBE1750:
.LBE1749:
	.loc 1 2761 0
	adrp	x5, .LC75
.LBB1755:
.LBB1754:
	.file 15 "./include/linux/list.h"
	.loc 15 29 0
	str	x0, [x0, 8]
.LBE1754:
.LBE1755:
	.loc 1 2760 0
	adrp	x0, new_buffer_refresh
	add	x0, x0, :lo12:new_buffer_refresh
	str	x0, [x19, 584]
	.loc 1 2761 0
	add	x5, x5, :lo12:.LC75
	mov	w1, 14
	mov	x4, 0
	mov	x3, 0
	mov	w2, 1
	movk	w1, 0xa, lsl 16
	.loc 1 2758 0
	mov	w26, 99
	.loc 1 2761 0
	adrp	x0, .LC76
	.loc 1 2758 0
	str	w26, [x29, 104]
	.loc 1 2761 0
	add	x0, x0, :lo12:.LC76
	bl	__alloc_workqueue_key
.LVL666:
	str	x0, [x19, 608]
	.loc 1 2764 0
	adrp	x3, .LC77
	mov	w2, -1
	add	x3, x3, :lo12:.LC77
	mov	x1, x19
	adrp	x0, ebc_auto_tast_function
	add	x0, x0, :lo12:ebc_auto_tast_function
	bl	kthread_create_on_node
.LVL667:
	str	x0, [x24, 8]
	.loc 1 2765 0
	cmn	x0, #4096
	bhi	.L776
	.loc 1 2769 0
	add	x2, x29, 104
	mov	w1, 1
	bl	sched_setscheduler_nocheck
.LVL668:
	.loc 1 2770 0
	ldr	x2, [x24, 8]
.LBB1756:
.LBB1757:
	.file 16 "./arch/arm64/include/asm/atomic_lse.h"
	.loc 16 47 0
	mov	w0, 1
.LVL669:
	add	x1, x2, 48
.LVL670:
#APP
// 47 "./arch/arm64/include/asm/atomic_lse.h" 1
	.arch_extension lse
.if 1 == 1
661:
	bl	__ll_sc_atomic_add

662:
.pushsection .altinstructions,"a"
 .word 661b - .
 .word 663f - .
 .hword 5
 .byte 662b-661b
 .byte 664f-663f
.popsection
.pushsection .altinstr_replacement, "a"
663:
	.arch_extension lse
	stadd	w0, [x1]

664:
	.popsection
	.org	. - (664b-663b) + (662b-661b)
	.org	. - (662b-661b) + (664b-663b)
.endif

// 0 "" 2
.LVL671:
#NO_APP
.LBE1757:
.LBE1756:
.LBB1758:
	.loc 1 2773 0
	adrp	x3, .LC46
	adrp	x0, ebc_thread
.LVL672:
	add	x3, x3, :lo12:.LC46
	mov	w2, -1
	add	x0, x0, :lo12:ebc_thread
	mov	x1, x19
.LBE1758:
	.loc 1 2772 0
	str	w26, [x29, 104]
.LBB1759:
	.loc 1 2773 0
	bl	kthread_create_on_node
.LVL673:
	mov	x24, x0
.LVL674:
	cmn	x0, #4096
	bhi	.L709
	bl	wake_up_process
.LVL675:
.LBE1759:
	str	x24, [x19, 136]
	.loc 1 2778 0
	add	x2, x29, 104
	mov	w1, 1
	mov	x0, x24
	bl	sched_setscheduler_nocheck
.LVL676:
	.loc 1 2779 0
	ldr	x2, [x19, 136]
.LBB1760:
.LBB1761:
	.loc 16 47 0
	mov	w0, 1
.LVL677:
	add	x1, x2, 48
.LVL678:
#APP
// 47 "./arch/arm64/include/asm/atomic_lse.h" 1
	.arch_extension lse
.if 1 == 1
661:
	bl	__ll_sc_atomic_add

662:
.pushsection .altinstructions,"a"
 .word 661b - .
 .word 663f - .
 .hword 5
 .byte 662b-661b
 .byte 664f-663f
.popsection
.pushsection .altinstr_replacement, "a"
663:
	.arch_extension lse
	stadd	w0, [x1]

664:
	.popsection
	.org	. - (664b-663b) + (662b-661b)
	.org	. - (662b-661b) + (664b-663b)
.endif

// 0 "" 2
.LVL679:
#NO_APP
.LBE1761:
.LBE1760:
.LBE1748:
.LBE1747:
.LBB1764:
.LBB1765:
	.loc 1 2788 0
	mov	w0, -1
.LVL680:
	str	w0, [x19, 64]
.LBB1766:
.LBB1767:
	.loc 4 39 0
	add	x0, x20, 416
.LVL681:
.LBE1767:
.LBE1766:
	.loc 1 2792 0
	str	wzr, [x19, 44]
	.loc 1 2791 0
	str	wzr, [x19, 96]
.LBB1772:
.LBB1768:
	.loc 4 43 0
	adrp	x1, .LC47
.LBE1768:
.LBE1772:
	.loc 1 2787 0
	str	wzr, [x19, 200]
.LBB1773:
.LBB1769:
	.loc 4 43 0
	add	x1, x1, :lo12:.LC47
.LBE1769:
.LBE1773:
	.loc 1 2789 0
	str	wzr, [x19, 616]
	.loc 1 2799 0
	add	x24, x20, 632
.LVL682:
	.loc 1 2790 0
	str	wzr, [x19, 620]
	.loc 1 2800 0
	adrp	x26, jiffies
.LBB1774:
.LBB1770:
	.loc 4 42 0
	stp	xzr, xzr, [x0]
.LBE1770:
.LBE1774:
	.loc 1 2800 0
	mov	x27, 268435455
.LBB1775:
.LBB1771:
	.loc 4 42 0
	stp	xzr, xzr, [x0, 16]
	stp	xzr, xzr, [x0, 32]
	stp	xzr, xzr, [x0, 48]
	stp	xzr, xzr, [x0, 64]
	stp	xzr, xzr, [x0, 80]
	stp	xzr, xzr, [x0, 96]
	stp	xzr, xzr, [x0, 112]
	stp	xzr, xzr, [x0, 128]
	stp	xzr, xzr, [x0, 144]
	stp	xzr, xzr, [x0, 160]
	stp	xzr, xzr, [x0, 176]
	stp	xzr, xzr, [x0, 192]
	.loc 4 43 0
	str	x1, [x20, 416]
	.loc 4 45 0
	bl	wakeup_source_add
.LVL683:
.LBE1771:
.LBE1775:
	.loc 1 2796 0
	str	wzr, [x19, 440]
	.loc 1 2799 0
	mov	x4, 0
	mov	x3, 0
	mov	w2, 0
	mov	x0, x24
	adrp	x1, ebc_vdd_power_timeout
	add	x1, x1, :lo12:ebc_vdd_power_timeout
	bl	init_timer_key
.LVL684:
	.loc 1 2800 0
	ldr	x1, [x26, #:lo12:jiffies]
	mov	x0, x24
	.loc 1 2803 0
	add	x24, x20, 688
	.loc 1 2800 0
	add	x1, x1, x27
	bl	mod_timer
.LVL685:
	.loc 1 2803 0
	mov	x4, 0
	mov	x3, 0
	mov	w2, 0
	mov	x0, x24
	adrp	x1, ebc_frame_timeout
	add	x1, x1, :lo12:ebc_frame_timeout
	bl	init_timer_key
.LVL686:
	.loc 1 2804 0
	ldr	x1, [x26, #:lo12:jiffies]
	mov	x0, x24
	add	x1, x1, x27
	bl	mod_timer
.LVL687:
.LBE1765:
.LBE1764:
.LBB1776:
.LBB1777:
	.loc 1 2814 0
	adrp	x0, saved_command_line
	adrp	x1, .LC48
	.loc 1 2811 0
	stp	wzr, wzr, [x29, 100]
.LVL688:
	.loc 1 2814 0
	add	x1, x1, :lo12:.LC48
	ldr	x24, [x0, #:lo12:saved_command_line]
	mov	x0, x24
	bl	strstr
.LVL689:
	.loc 1 2815 0
	adrp	x1, .LC49
	.loc 1 2814 0
	mov	x26, x0
.LVL690:
	.loc 1 2815 0
	add	x1, x1, :lo12:.LC49
	mov	x0, x24
	bl	strstr
.LVL691:
	mov	x28, x0
.LVL692:
	.loc 1 2820 0
	cbz	x26, .L710
	.loc 1 2821 0
	add	x2, x29, 100
	adrp	x1, .LC50
	mov	x0, x26
	add	x1, x1, :lo12:.LC50
	bl	sscanf
.LVL693:
	.loc 1 2822 0
	ldr	w2, [x29, 100]
	ldr	x0, [x20, 184]
	cmp	x0, x2, uxtw
	bls	.L777
.L710:
	.loc 1 2834 0
	mov	w24, 0
.LVL694:
	mov	x27, 0
.LVL695:
	.loc 1 2818 0
	mov	x26, 0
.LVL696:
	.loc 1 2834 0
	cbz	x28, .L730
.LVL697:
.L729:
	.loc 1 2835 0
	add	x2, x29, 104
	mov	x0, x28
	adrp	x1, .LC53
	add	x1, x1, :lo12:.LC53
	bl	sscanf
.LVL698:
	.loc 1 2813 0
	mov	w28, 0
.LVL699:
	.loc 1 2836 0
	ldr	w2, [x29, 104]
	.loc 1 2818 0
	mov	x26, 0
.LVL700:
	.loc 1 2836 0
	ldr	x0, [x20, 184]
	cmp	x0, x2, uxtw
	bls	.L778
.L714:
	.loc 1 2848 0
	cbnz	w24, .L713
.LVL701:
.L730:
	.loc 1 2849 0
	ldr	x0, [x19, 104]
	adrp	x1, .LC56
	add	x1, x1, :lo12:.LC56
	bl	_dev_info
.LVL702:
	.loc 1 2850 0
	ldr	x0, [x20, 16]
	bl	ebc_pmic_verity_vcom
.LVL703:
.LBB1778:
.LBB1779:
	.loc 1 2159 0
	bl	ebc_empty_buf_get
.LVL704:
	mov	x24, x0
.LVL705:
	.loc 1 2160 0
	ldp	w2, w0, [x20, 108]
	mov	w1, 255
	mul	w2, w2, w0
	ldr	x0, [x24, 16]
	lsr	w2, w2, 1
	bl	memset
.LVL706:
	.loc 1 2163 0
	stp	wzr, wzr, [x24, 48]
	.loc 1 2161 0
	mov	w0, 17
	str	w0, [x24, 40]
	.loc 1 2166 0
	mov	w2, 16
	.loc 1 2167 0
	mov	x0, x24
	.loc 1 2164 0
	ldr	w1, [x20, 108]
	str	w1, [x24, 56]
	.loc 1 2165 0
	ldr	w1, [x20, 112]
	.loc 1 2166 0
	stp	w1, w2, [x24, 60]
	.loc 1 2167 0
	bl	ebc_add_to_dsp_buf_list
.LVL707:
.L716:
.LBE1779:
.LBE1778:
	.loc 1 2868 0
	cbnz	w28, .L779
.L718:
	.loc 1 2882 0
	ldr	w0, [x19, 96]
	adrp	x21, .LANCHOR1
	cbz	w0, .L780
.L720:
	.loc 1 2887 0
	cbz	x27, .L721
	.loc 1 2888 0
	mov	x0, x27
	bl	kfree
.LVL708:
.L721:
	.loc 1 2889 0
	cbz	x26, .L712
	.loc 1 2890 0
	mov	x0, x26
	bl	kfree
.LVL709:
.L712:
.LBE1777:
.LBE1776:
.LBB1789:
.LBB1790:
.LBB1791:
	.loc 2 1186 0
	str	x20, [x22, 184]
.LBE1791:
.LBE1790:
.LBE1789:
.LBB1792:
.LBB1793:
	.loc 1 2635 0
	add	x21, x21, :lo12:.LANCHOR1
	add	x0, x21, 224
	bl	misc_register
.LVL710:
	.loc 1 2636 0
	add	x0, x21, 376
	bl	misc_register
.LVL711:
	.loc 1 2638 0
	ldr	x0, [x20, 288]
	add	x1, x21, 456
	bl	device_create_file
.LVL712:
	.loc 1 2639 0
	ldr	x0, [x20, 288]
	add	x1, x21, 488
	bl	device_create_file
.LVL713:
	.loc 1 2640 0
	ldr	x0, [x20, 288]
	add	x1, x21, 520
	bl	device_create_file
.LVL714:
	.loc 1 2641 0
	ldr	x0, [x20, 288]
	add	x1, x21, 552
	bl	device_create_file
.LVL715:
	.loc 1 2642 0
	ldr	x0, [x20, 288]
	add	x1, x21, 584
	bl	device_create_file
.LVL716:
	.loc 1 2643 0
	ldr	x0, [x20, 288]
	add	x1, x21, 616
	bl	device_create_file
.LVL717:
	.loc 1 2644 0
	ldr	x0, [x20, 288]
	add	x1, x21, 648
	bl	device_create_file
.LVL718:
.LBE1793:
.LBE1792:
	.loc 1 3019 0
	ldr	x0, [x19, 104]
	adrp	x2, .LC16
	adrp	x1, .LC57
	add	x2, x2, :lo12:.LC16
	add	x1, x1, :lo12:.LC57
	bl	_dev_info
.LVL719:
	.loc 1 3021 0
	b	.L682
.LVL720:
.L780:
.LBB1794:
.LBB1786:
	.loc 1 2883 0
	mov	w2, 1
	str	w2, [x19, 96]
	.loc 1 2884 0
	add	x0, x21, :lo12:.LANCHOR1
	mov	w1, w2
	add	x0, x0, 304
	bl	__wake_up_sync
.LVL721:
	b	.L720
.LVL722:
.L777:
	.loc 1 2824 0
	ldr	x0, [x19, 104]
	adrp	x1, .LC51
	add	x1, x1, :lo12:.LC51
	bl	_dev_info
.LVL723:
	.loc 1 2825 0
	ldp	w0, w1, [x21, 84]
	mul	w0, w0, w1
.LBB1780:
.LBB1781:
.LBB1782:
	.file 17 "./include/linux/slab.h"
	.loc 17 553 0
	mov	w1, 32960
	movk	w1, 0x60, lsl 16
	lsr	w0, w0, 1
	bl	__kmalloc
.LVL724:
	mov	x27, x0
.LVL725:
.LBE1782:
.LBE1781:
.LBE1780:
	.loc 1 2826 0
	cbz	x0, .L781
	.loc 1 2830 0
	ldp	w2, w1, [x21, 84]
	ldr	x3, [x20, 184]
	mul	w2, w2, w1
	ldr	w1, [x29, 100]
.LVL726:
	sub	x1, x1, x3
.LVL727:
	ldr	x3, [x19, 8]
	lsr	w2, w2, 1
	add	x1, x3, x1
	bl	memcpy
.LVL728:
	.loc 1 2834 0
	cbnz	x28, .L782
	.loc 1 2813 0
	mov	w28, 0
.LVL729:
	.loc 1 2818 0
	mov	x26, 0
.LVL730:
.L713:
	.loc 1 2855 0
	bl	ebc_empty_buf_get
.LVL731:
	mov	x24, x0
.LVL732:
	.loc 1 2856 0
	cbz	x0, .L716
	.loc 1 2857 0
	ldp	w2, w0, [x21, 84]
	mov	x1, x27
	mul	w2, w2, w0
	ldr	x0, [x24, 16]
	lsr	w2, w2, 1
	bl	memcpy
.LVL733:
	.loc 1 2860 0
	stp	wzr, wzr, [x24, 48]
	.loc 1 2858 0
	mov	w0, 7
	str	w0, [x24, 40]
	.loc 1 2863 0
	mov	w2, 16
	.loc 1 2864 0
	mov	x0, x24
	.loc 1 2861 0
	ldr	w1, [x21, 84]
	str	w1, [x24, 56]
	.loc 1 2862 0
	ldr	w1, [x21, 88]
	.loc 1 2863 0
	stp	w1, w2, [x24, 60]
	.loc 1 2864 0
	bl	ebc_add_to_dsp_buf_list
.LVL734:
	b	.L716
.LVL735:
.L778:
	.loc 1 2838 0
	ldr	x0, [x19, 104]
	adrp	x1, .LC54
	add	x1, x1, :lo12:.LC54
	bl	_dev_info
.LVL736:
	.loc 1 2839 0
	ldp	w0, w1, [x21, 84]
	mul	w0, w0, w1
.LBB1783:
.LBB1784:
.LBB1785:
	.loc 17 553 0
	mov	w1, 32960
	movk	w1, 0x60, lsl 16
	lsr	w0, w0, 1
	bl	__kmalloc
.LVL737:
	mov	x26, x0
.LBE1785:
.LBE1784:
.LBE1783:
	.loc 1 2840 0
	cbz	x0, .L783
	.loc 1 2844 0
	ldp	w2, w1, [x21, 84]
	.loc 1 2837 0
	mov	w28, 1
	.loc 1 2844 0
	ldr	x3, [x20, 184]
	mul	w2, w2, w1
	ldr	w1, [x29, 104]
.LVL738:
	sub	x1, x1, x3
.LVL739:
	ldr	x3, [x19, 8]
	lsr	w2, w2, 1
	add	x1, x3, x1
	bl	memcpy
.LVL740:
	b	.L714
.LVL741:
.L686:
.LBE1786:
.LBE1794:
	.loc 1 2927 0
	mov	w25, -517
	b	.L682
.LVL742:
.L779:
.LBB1795:
.LBB1787:
	.loc 1 2869 0
	bl	ebc_empty_buf_get
.LVL743:
	mov	x24, x0
.LVL744:
	.loc 1 2870 0
	cbz	x0, .L718
	.loc 1 2871 0
	ldp	w2, w0, [x21, 84]
	mov	x1, x26
	mul	w2, w2, w0
	ldr	x0, [x24, 16]
	lsr	w2, w2, 1
	bl	memcpy
.LVL745:
	.loc 1 2874 0
	stp	wzr, wzr, [x24, 48]
	.loc 1 2872 0
	mov	w0, 7
	str	w0, [x24, 40]
	.loc 1 2877 0
	mov	w1, 16
	.loc 1 2875 0
	ldr	w0, [x21, 84]
	str	w0, [x24, 56]
	.loc 1 2876 0
	ldr	w0, [x21, 88]
	.loc 1 2877 0
	stp	w0, w1, [x24, 60]
	.loc 1 2878 0
	mov	x0, x24
	bl	ebc_add_to_dsp_buf_list
.LVL746:
	b	.L718
.LVL747:
.L732:
.LBE1787:
.LBE1795:
	.loc 1 2913 0
	mov	w25, -12
	b	.L682
.LVL748:
.L687:
	.loc 1 2937 0
	adrp	x1, .LC29
	mov	x0, x22
	add	x1, x1, :lo12:.LC29
	.loc 1 2938 0
	mov	w25, -22
	.loc 1 2937 0
	bl	_dev_err
.LVL749:
	.loc 1 2938 0
	b	.L682
.LVL750:
.L775:
.LBB1796:
.LBB1743:
	.loc 1 2682 0
	ldr	x0, [x19, 104]
	adrp	x1, .LC43
	add	x1, x1, :lo12:.LC43
	bl	_dev_err
.LVL751:
	.loc 1 2683 0
	ldr	x0, [x19, 104]
	mov	w2, w26
	ldr	x1, [x19, 208]
	bl	epd_lut_from_file_init
.LVL752:
	.loc 1 2684 0
	tbz	w0, #31, .L707
	.loc 1 2685 0
	ldr	x0, [x19, 104]
	adrp	x1, .LC44
	.loc 1 2686 0
	mov	w25, -1
	.loc 1 2685 0
	add	x1, x1, :lo12:.LC44
	bl	_dev_err
.LVL753:
	b	.L705
.LVL754:
	.p2align 3
.L704:
.LBE1743:
.LBE1796:
.LBB1797:
.LBB1732:
	.loc 1 2721 0
	mov	w25, -12
	b	.L701
.LVL755:
.L776:
.LBE1732:
.LBE1797:
.LBB1798:
.LBB1762:
	.loc 1 2766 0
	ldr	x0, [x19, 104]
	adrp	x1, .LC45
	add	x1, x1, :lo12:.LC45
	bl	_dev_err
.LVL756:
.L708:
.LBE1762:
.LBE1798:
	.loc 1 3004 0
	adrp	x1, .LC79
	mov	x0, x22
	add	x1, x1, :lo12:.LC79
	.loc 1 3005 0
	mov	w25, -1
	.loc 1 3004 0
	bl	_dev_err
.LVL757:
	.loc 1 3005 0
	b	.L682
.LVL758:
.L709:
.LBB1799:
.LBB1763:
	.loc 1 2775 0
	ldr	x0, [x19, 104]
.LVL759:
	adrp	x1, .LC78
	.loc 1 2773 0
	str	x24, [x19, 136]
	.loc 1 2775 0
	add	x1, x1, :lo12:.LC78
	bl	_dev_err
.LVL760:
	b	.L708
.LVL761:
.L768:
.LBE1763:
.LBE1799:
	.loc 1 2920 0
	adrp	x1, .LC27
	mov	x0, x22
	add	x1, x1, :lo12:.LC27
	.loc 1 2921 0
	mov	w25, -19
	.loc 1 2920 0
	bl	_dev_err
.LVL762:
	.loc 1 2921 0
	b	.L682
.LVL763:
.L733:
.LBB1800:
.LBB1733:
	.loc 1 2706 0
	mov	w25, -19
	b	.L701
.LVL764:
.L734:
.LBE1733:
.LBE1800:
.LBB1801:
.LBB1744:
	.loc 1 2660 0
	mov	w25, -19
	b	.L705
.LVL765:
.L774:
	.loc 1 2676 0
	ldr	x0, [x19, 104]
	adrp	x2, .LANCHOR3
	add	x2, x2, :lo12:.LANCHOR3
	adrp	x1, .LC42
	mov	w3, 2676
	add	x2, x2, 32
	add	x1, x1, :lo12:.LC42
	.loc 1 2677 0
	mov	w25, -12
	.loc 1 2676 0
	bl	_dev_err
.LVL766:
	b	.L705
.LVL767:
.L782:
.LBE1744:
.LBE1801:
.LBB1802:
.LBB1788:
	.loc 1 2823 0
	mov	w24, 1
.LVL768:
	b	.L729
.LVL769:
.L781:
	.loc 1 2827 0
	ldr	x0, [x19, 104]
.LVL770:
	adrp	x1, .LC52
	adrp	x21, .LANCHOR1
	add	x1, x1, :lo12:.LC52
	bl	_dev_err
.LVL771:
	b	.L712
.LVL772:
.L783:
	.loc 1 2841 0
	ldr	x0, [x19, 104]
.LVL773:
	adrp	x1, .LC55
	adrp	x21, .LANCHOR1
	add	x1, x1, :lo12:.LC55
	bl	_dev_err
.LVL774:
	b	.L712
.LVL775:
.L771:
.LBE1788:
.LBE1802:
	.loc 1 3022 0
	bl	__stack_chk_fail
.LVL776:
	.cfi_endproc
.LFE2861:
	.size	ebc_probe, .-ebc_probe
	.align	2
	.p2align 3,,7
	.type	ebc_power_set.constprop.17, %function
ebc_power_set.constprop.17:
.LFB2886:
	.loc 1 183 0
	.cfi_startproc
.LVL777:
	stp	x29, x30, [sp, -32]!
	.cfi_def_cfa_offset 32
	.cfi_offset 29, -32
	.cfi_offset 30, -24
	add	x29, sp, 0
	.cfi_def_cfa_register 29
	stp	x19, x20, [sp, 16]
	.cfi_offset 19, -16
	.cfi_offset 20, -8
	.loc 1 189 0
	add	x20, x0, 184
	.loc 1 183 0
	mov	x19, x0
	.loc 1 189 0
	ldr	w0, [x20, 440]
.LVL778:
	cbz	w0, .L787
.L785:
	.loc 1 193 0
	mov	w1, 1
	str	w1, [x20, 200]
	.loc 1 194 0
	ldr	x2, [x19, 16]
.LBB1803:
.LBB1804:
	.loc 3 30 0
	mov	x0, x2
	ldr	x2, [x2, 32]
	blr	x2
.LVL779:
.LBE1804:
.LBE1803:
	.loc 1 195 0
	ldr	x2, [x19, 8]
.LBB1805:
.LBB1806:
	.loc 11 46 0
	add	x1, x19, 24
	mov	x0, x2
	ldr	x2, [x2, 48]
	blr	x2
.LVL780:
.LBE1806:
.LBE1805:
	.loc 1 196 0
	ldr	x0, [x19]
	adrp	x1, .LC81
	add	x1, x1, :lo12:.LC81
	bl	_dev_info
.LVL781:
	.loc 1 211 0
	mov	w0, 0
	ldp	x19, x20, [sp, 16]
.LVL782:
	ldp	x29, x30, [sp], 32
	.cfi_remember_state
	.cfi_restore 30
	.cfi_restore 29
	.cfi_restore 19
	.cfi_restore 20
	.cfi_def_cfa 31, 0
	ret
.LVL783:
	.p2align 3
.L787:
	.cfi_restore_state
	.loc 1 190 0
	mov	w0, 1
	str	w0, [x20, 440]
.LBB1807:
.LBB1808:
	.loc 4 58 0
	add	x0, x19, 416
	bl	__pm_stay_awake
.LVL784:
	b	.L785
.LBE1808:
.LBE1807:
	.cfi_endproc
.LFE2886:
	.size	ebc_power_set.constprop.17, .-ebc_power_set.constprop.17
	.align	2
	.p2align 3,,7
	.type	ebc_open, %function
ebc_open:
.LFB2885:
	.cfi_startproc
	mov	w0, 0
	str	xzr, [x1, 104]
	ret
	.cfi_endproc
.LFE2885:
	.size	ebc_open, .-ebc_open
	.align	2
	.p2align 3,,7
	.global	refresh_new_image2
	.type	refresh_new_image2, %function
refresh_new_image2:
.LFB2810:
	.loc 1 216 0
	.cfi_startproc
.LVL785:
	.loc 1 223 0
	ldp	w16, w5, [x4, 68]
.LVL786:
	cmp	w5, 0
	add	w11, w5, 7
	csel	w11, w11, w5, lt
.LVL787:
	.loc 1 225 0
	cmp	w16, 0
	.loc 1 223 0
	asr	w11, w11, 3
.LVL788:
	.loc 1 225 0
	ble	.L789
	sub	w14, w11, #1
	mov	w15, 0
.LVL789:
	add	x14, x14, 1
	.loc 1 270 0
	mov	w13, 234881024
	lsl	x17, x14, 3
	lsl	x14, x14, 2
	.loc 1 276 0
	mov	w12, -536870912
.LVL790:
	.p2align 2
.L791:
	.loc 1 226 0 discriminator 1
	mov	x6, 0
	cmp	w11, 0
	bgt	.L812
	b	.L809
.LVL791:
	.p2align 3
.L792:
	.loc 1 239 0
	tst	x5, 65280
	bne	.L793
	.loc 1 240 0
	and	w10, w4, 240
	cmp	w10, 224
	beq	.L814
	.loc 1 243 0
	orr	w7, w7, 240
.L793:
	.loc 1 245 0
	tst	x5, 16711680
	bne	.L795
	.loc 1 246 0
	and	w10, w4, 3840
	cmp	w10, 3584
	beq	.L815
	.loc 1 249 0
	orr	w7, w7, 3840
.L795:
	.loc 1 251 0
	tst	x5, 4278190080
	bne	.L797
	.loc 1 252 0
	and	w10, w4, 61440
	cmp	w10, 57344
	beq	.L816
	.loc 1 255 0
	orr	w7, w7, 61440
.L797:
	.loc 1 257 0
	tst	x5, 1095216660480
	bne	.L799
	.loc 1 258 0
	and	w10, w4, 983040
	cmp	w10, 917504
	beq	.L817
	.loc 1 261 0
	orr	w7, w7, 983040
.L799:
	.loc 1 263 0
	tst	x5, 280375465082880
	bne	.L801
	.loc 1 264 0
	and	w10, w4, 15728640
	cmp	w10, 14680064
	beq	.L818
	.loc 1 267 0
	orr	w7, w7, 15728640
.L801:
	.loc 1 269 0
	tst	x5, 71776119061217280
	bne	.L803
	.loc 1 270 0
	and	w10, w4, 251658240
	cmp	w10, w13
	beq	.L819
	.loc 1 273 0
	orr	w7, w7, 251658240
.L803:
	.loc 1 275 0
	tst	x5, -72057594037927936
	bne	.L805
	.loc 1 276 0
	and	w5, w4, -268435456
.LVL792:
	cmp	w5, w12
	beq	.L820
	.loc 1 279 0
	orr	w7, w7, -268435456
.LVL793:
.L805:
	.loc 1 283 0 discriminator 2
	and	w4, w4, w9
.LVL794:
	eor	w4, w4, w8
	and	w4, w4, w7
	eor	w4, w8, w4
	.loc 1 284 0 discriminator 2
	str	w4, [x0, x6, lsl 2]
	add	x6, x6, 1
	.loc 1 226 0 discriminator 2
	cmp	w11, w6
	ble	.L821
.LVL795:
.L812:
	.loc 1 227 0
	ldr	x5, [x3, x6, lsl 3]
	.loc 1 231 0
	mov	w7, 0
	.loc 1 228 0
	ldr	w4, [x1, x6, lsl 2]
.LVL796:
	.loc 1 229 0
	ldr	w8, [x0, x6, lsl 2]
	.loc 1 233 0
	and	x10, x5, 255
	.loc 1 230 0
	ldr	w9, [x2, x6, lsl 2]
.LVL797:
	.loc 1 233 0
	cbnz	x10, .L792
.LVL798:
	.loc 1 234 0
	and	w10, w4, 15
	.loc 1 237 0
	mov	w7, 15
	.loc 1 234 0
	cmp	w10, 14
	bne	.L792
	.loc 1 235 0
	orr	w8, w8, w7
.LVL799:
	.loc 1 231 0
	mov	w7, 0
.LVL800:
	b	.L792
	.p2align 3
.L819:
	.loc 1 271 0
	orr	w8, w8, 251658240
	b	.L803
.LVL801:
	.p2align 3
.L820:
	.loc 1 277 0
	orr	w8, w8, -268435456
.LVL802:
	.loc 1 283 0
	and	w4, w4, w9
.LVL803:
	eor	w4, w4, w8
	and	w4, w4, w7
	eor	w4, w8, w4
	.loc 1 284 0
	str	w4, [x0, x6, lsl 2]
	add	x6, x6, 1
	.loc 1 226 0
	cmp	w11, w6
	bgt	.L812
.LVL804:
	.p2align 2
.L821:
	add	x3, x3, x17
	add	x1, x1, x14
	add	x2, x2, x14
	add	x0, x0, x14
.LVL805:
.L809:
	.loc 1 225 0 discriminator 2
	add	w15, w15, 1
	cmp	w16, w15
	bne	.L791
.L789:
	ret
.LVL806:
	.p2align 3
.L815:
	.loc 1 247 0
	orr	w8, w8, 3840
	b	.L795
	.p2align 3
.L816:
	.loc 1 253 0
	orr	w8, w8, 61440
	b	.L797
	.p2align 3
.L817:
	.loc 1 259 0
	orr	w8, w8, 983040
	b	.L799
	.p2align 3
.L818:
	.loc 1 265 0
	orr	w8, w8, 15728640
	b	.L801
	.p2align 3
.L814:
	.loc 1 241 0
	orr	w8, w8, 240
	b	.L793
	.cfi_endproc
.LFE2810:
	.size	refresh_new_image2, .-refresh_new_image2
	.align	2
	.p2align 3,,7
	.global	refresh_new_image_auto
	.type	refresh_new_image_auto, %function
refresh_new_image_auto:
.LFB2811:
	.loc 1 291 0
	.cfi_startproc
.LVL807:
	.loc 1 298 0
	ldp	w13, w4, [x3, 68]
	cmp	w4, 0
	add	w9, w4, 7
	csel	w9, w9, w4, lt
.LVL808:
	.loc 1 300 0
	cmp	w13, 0
	.loc 1 298 0
	asr	w9, w9, 3
.LVL809:
	.loc 1 300 0
	ble	.L822
	sub	w12, w9, #1
	mov	w11, 0
.LVL810:
	add	x12, x12, 1
	.loc 1 308 0
	mov	w10, 15
	lsl	x14, x12, 3
	lsl	x12, x12, 2
	.p2align 2
.L824:
	.loc 1 301 0 discriminator 1
	mov	x6, 0
	cmp	w9, 0
	ble	.L835
	.p2align 2
.L837:
	.loc 1 302 0
	ldr	x4, [x2, x6, lsl 3]
.LVL811:
	.loc 1 304 0
	ldr	w7, [x0, x6, lsl 2]
	.loc 1 303 0
	ldr	w3, [x1, x6, lsl 2]
.LVL812:
	.loc 1 307 0
	and	x5, x4, 255
	.loc 1 308 0
	cmp	x5, 0
.LVL813:
	eor	w5, w3, w7
	csel	w3, wzr, w10, ne
.LVL814:
	.loc 1 311 0
	orr	w8, w3, 240
	tst	x4, 65280
	csel	w3, w8, w3, eq
	.loc 1 314 0
	tst	x4, 16711680
	orr	w8, w3, 3840
	csel	w3, w8, w3, eq
	.loc 1 317 0
	tst	x4, 4278190080
	orr	w8, w3, 61440
	csel	w3, w8, w3, eq
	.loc 1 320 0
	tst	x4, 1095216660480
	orr	w8, w3, 983040
	csel	w3, w8, w3, eq
	.loc 1 323 0
	tst	x4, 280375465082880
	orr	w8, w3, 15728640
	csel	w3, w8, w3, eq
	.loc 1 326 0
	tst	x4, 71776119061217280
	orr	w8, w3, 251658240
	csel	w3, w8, w3, eq
	.loc 1 329 0
	tst	x4, -72057594037927936
	orr	w4, w3, -268435456
.LVL815:
	csel	w3, w4, w3, eq
	and	w3, w5, w3
.LVL816:
	.loc 1 332 0
	eor	w3, w3, w7
	.loc 1 333 0
	str	w3, [x0, x6, lsl 2]
	add	x6, x6, 1
	.loc 1 301 0
	cmp	w9, w6
	bgt	.L837
	add	x2, x2, x14
	add	x1, x1, x12
	add	x0, x0, x12
.LVL817:
.L835:
	.loc 1 300 0 discriminator 2
	add	w11, w11, 1
	cmp	w13, w11
	bne	.L824
.L822:
	ret
	.cfi_endproc
.LFE2811:
	.size	refresh_new_image_auto, .-refresh_new_image_auto
	.align	2
	.p2align 3,,7
	.global	new_buffer_refresh
	.type	new_buffer_refresh, %function
new_buffer_refresh:
.LFB2812:
	.loc 1 339 0
	.cfi_startproc
.LVL818:
	stp	x29, x30, [sp, -32]!
	.cfi_def_cfa_offset 32
	.cfi_offset 29, -32
	.cfi_offset 30, -24
	.loc 1 340 0
	adrp	x1, .LANCHOR0
	.loc 1 339 0
	add	x29, sp, 0
	.cfi_def_cfa_register 29
	stp	x19, x20, [sp, 16]
	.cfi_offset 19, -16
	.cfi_offset 20, -8
	.loc 1 343 0
	adrp	x20, .LANCHOR1
	.loc 1 340 0
	ldr	x19, [x1, #:lo12:.LANCHOR0]
.LVL819:
	.loc 1 343 0
	add	x0, x20, :lo12:.LANCHOR1
.LVL820:
	add	x0, x0, 680
	bl	down_write
.LVL821:
	.loc 1 341 0
	add	x19, x19, 184
.LVL822:
	.loc 1 344 0
	ldr	x0, [x19, 224]
	ldr	w5, [x0, 40]
	.loc 1 345 0
	sub	w1, w5, #22
	.loc 1 346 0
	cmp	w5, 0
	ccmp	w1, 1, 0, ne
	bls	.L843
	.loc 1 352 0
	ldr	x1, [x0, 16]
	mov	x4, x19
	ldp	x2, x3, [x19, 160]
	ldr	x0, [x19, 144]
	bl	refresh_new_image2
.LVL823:
	.loc 1 357 0
	add	x0, x20, :lo12:.LANCHOR1
	add	x0, x0, 680
	bl	up_write
.LVL824:
	.loc 1 358 0
	ldp	x19, x20, [sp, 16]
.LVL825:
	ldp	x29, x30, [sp], 32
	.cfi_remember_state
	.cfi_restore 30
	.cfi_restore 29
	.cfi_restore 19
	.cfi_restore 20
	.cfi_def_cfa 31, 0
	ret
.LVL826:
	.p2align 3
.L843:
	.cfi_restore_state
	.loc 1 347 0
	ldr	x1, [x0, 16]
	mov	x3, x19
	ldr	x2, [x19, 168]
	ldr	x0, [x19, 144]
	bl	refresh_new_image_auto
.LVL827:
	.loc 1 357 0
	add	x0, x20, :lo12:.LANCHOR1
	add	x0, x0, 680
	bl	up_write
.LVL828:
	.loc 1 358 0
	ldp	x19, x20, [sp, 16]
.LVL829:
	ldp	x29, x30, [sp], 32
	.cfi_restore 20
	.cfi_restore 19
	.cfi_restore 29
	.cfi_restore 30
	.cfi_def_cfa 31, 0
	ret
	.cfi_endproc
.LFE2812:
	.size	new_buffer_refresh, .-new_buffer_refresh
	.align	2
	.p2align 3,,7
	.type	ebc_auto_tast_function, %function
ebc_auto_tast_function:
.LFB2831:
	.loc 1 1514 0
	.cfi_startproc
.LVL830:
	stp	x29, x30, [sp, -96]!
	.cfi_def_cfa_offset 96
	.cfi_offset 29, -96
	.cfi_offset 30, -88
	.loc 1 1515 0
	adrp	x1, .LANCHOR0
	.loc 1 1514 0
	adrp	x0, __stack_chk_guard
.LVL831:
	add	x0, x0, :lo12:__stack_chk_guard
	add	x29, sp, 0
	.cfi_def_cfa_register 29
	stp	x19, x20, [sp, 16]
	.cfi_offset 19, -80
	.cfi_offset 20, -72
	adrp	x20, .LANCHOR1
	stp	x21, x22, [sp, 32]
	.loc 1 1520 0
	add	x20, x20, :lo12:.LANCHOR1
	.cfi_offset 21, -64
	.cfi_offset 22, -56
	.loc 1 1515 0
	ldr	x22, [x1, #:lo12:.LANCHOR0]
.LVL832:
	.loc 1 1520 0
	add	x20, x20, 728
	.loc 1 1514 0
	stp	x23, x24, [sp, 48]
	.cfi_offset 23, -48
	.cfi_offset 24, -40
.LBB1809:
.LBB1810:
.LBB1811:
	.loc 14 288 0
	mov	x24, 2
.LBE1811:
.LBE1810:
.LBE1809:
	.loc 1 1514 0
	stp	x25, x26, [sp, 64]
	.cfi_offset 25, -32
	.cfi_offset 26, -24
	.loc 1 1516 0
	add	x21, x22, 24
	adrp	x26, .LC82
	.loc 1 1517 0
	add	x19, x22, 184
	.loc 1 1514 0
	ldr	x1, [x0]
	str	x1, [x29, 88]
	mov	x1,0
	add	x25, x22, 744
	.loc 1 1580 0
	add	x26, x26, :lo12:.LC82
.LBB1816:
.LBB1813:
.LBB1814:
	.loc 5 19 0
#APP
// 19 "./arch/arm64/include/asm/current.h" 1
	mrs x23, sp_el0
// 0 "" 2
.LVL833:
#NO_APP
	b	.L856
	.p2align 3
.L853:
.LBE1814:
.LBE1813:
.LBE1816:
	.loc 1 1600 0
	mov	x0, x20
	bl	up
.LVL834:
	.loc 1 1601 0
	bl	schedule
.LVL835:
.L856:
	.loc 1 1520 0
	mov	x0, x20
	bl	down
.LVL836:
.LBB1817:
.LBB1815:
.LBB1812:
	.loc 14 288 0
	str	x24, [x23, 32]
.LBE1812:
.LBE1815:
.LBE1817:
	.loc 1 1524 0
#APP
// 1524 "drivers/gpu/drm/rockchip/ebc-dev/ebc_dev.c" 1
	dmb ish
// 0 "" 2
	.loc 1 1525 0
#NO_APP
	ldr	x0, [x19, 224]
	ldr	w0, [x0, 40]
	cmp	w0, 16
	bgt	.L846
	cmp	w0, 7
	bge	.L847
	cbz	w0, .L848
	cmp	w0, 1
	bne	.L845
	.loc 1 1527 0
	ldr	w1, [x22, 208]
	mov	x0, x21
	bl	flip.isra.11
.LVL837:
	.loc 1 1528 0
	ldrsw	x0, [x21, 72]
	mov	x4, x19
	ldp	x1, x2, [x19, 144]
	add	x0, x19, x0, lsl 3
	ldr	x3, [x19, 168]
	ldr	x0, [x0, 184]
	bl	get_overlay_image
.LVL838:
.L850:
	.loc 1 1575 0
	ldr	x0, [x19, 224]
	.loc 1 1576 0
	ldr	w0, [x0, 40]
	sub	w1, w0, #22
	.loc 1 1578 0
	cmp	w1, 1
	ccmp	w0, 1, 0, hi
	bhi	.L853
	.loc 1 1579 0
	ldr	w0, [x19, 52]
	cbz	w0, .L868
.LBB1818:
.LBB1819:
	.file 18 "./include/linux/workqueue.h"
	.loc 18 518 0
	ldr	x1, [x19, 608]
	mov	x2, x25
	mov	w0, 8
	bl	queue_work_on
.LVL839:
	b	.L853
	.p2align 3
.L845:
.LBE1819:
.LBE1818:
	.loc 1 1564 0
	ldr	w1, [x19, 56]
	.loc 1 1565 0
	mov	x0, x21
	.loc 1 1564 0
	sub	w1, w1, #1
	str	w1, [x19, 56]
	.loc 1 1565 0
	ldr	w1, [x22, 208]
	bl	flip.isra.11
.LVL840:
	.loc 1 1566 0
	ldr	w0, [x19, 56]
	cbz	w0, .L850
	.loc 1 1568 0
	ldrsw	x0, [x21, 72]
	mov	x3, x19
	.loc 1 1569 0
	ldp	x2, x1, [x19, 216]
	.loc 1 1568 0
	add	x0, x19, x0, lsl 3
	ldr	x1, [x1, 16]
	ldr	x0, [x0, 184]
	ldr	x2, [x2, 16]
	bl	direct_mode_data_change
.LVL841:
	b	.L850
	.p2align 3
.L847:
	.loc 1 1554 0
	ldr	w1, [x19, 56]
	.loc 1 1555 0
	mov	x0, x21
	.loc 1 1554 0
	sub	w1, w1, #1
	str	w1, [x19, 56]
	.loc 1 1555 0
	ldr	w1, [x22, 208]
	bl	flip.isra.11
.LVL842:
	.loc 1 1556 0
	ldr	w0, [x19, 56]
	cbz	w0, .L850
	.loc 1 1558 0
	ldrsw	x0, [x21, 72]
	mov	x3, x19
	.loc 1 1559 0
	ldp	x2, x1, [x19, 216]
	.loc 1 1558 0
	add	x0, x19, x0, lsl 3
	ldr	x1, [x1, 16]
	ldr	x0, [x0, 184]
	ldr	x2, [x2, 16]
	bl	direct_mode_data_change_part
.LVL843:
	.loc 1 1562 0
	b	.L850
	.p2align 3
.L846:
	.loc 1 1525 0
	sub	w0, w0, #22
	cmp	w0, 1
	bhi	.L845
.L848:
	.loc 1 1537 0
	ldr	w1, [x22, 208]
	mov	x0, x21
	bl	flip.isra.11
.LVL844:
	.loc 1 1538 0
	ldrsw	x0, [x21, 72]
	mov	x4, x19
	ldp	x1, x2, [x19, 144]
	add	x0, x19, x0, lsl 3
	ldr	x3, [x19, 168]
	ldr	x0, [x0, 184]
	bl	get_auto_image
.LVL845:
	.loc 1 1543 0
	b	.L850
.L868:
	.loc 1 1580 0
	mov	x0, x26
	bl	printk
.LVL846:
	.loc 1 1581 0
	mov	x0, x25
	bl	new_buffer_refresh
.LVL847:
	.loc 1 1582 0
	ldr	x0, [x19, 224]
	ldr	w0, [x0, 40]
	cmp	w0, 1
	.loc 1 1583 0
	ldrsw	x0, [x21, 72]
	.loc 1 1582 0
	beq	.L869
	.loc 1 1589 0
	add	x0, x19, x0, lsl 3
	ldr	x3, [x19, 168]
	ldp	x1, x2, [x19, 144]
	mov	x4, x19
	ldr	x0, [x0, 184]
	bl	get_auto_image
.LVL848:
	b	.L853
.L869:
	.loc 1 1583 0
	add	x0, x19, x0, lsl 3
	ldr	x3, [x19, 168]
	ldp	x1, x2, [x19, 144]
	mov	x4, x19
	ldr	x0, [x0, 184]
	bl	get_overlay_image
.LVL849:
	b	.L853
	.cfi_endproc
.LFE2831:
	.size	ebc_auto_tast_function, .-ebc_auto_tast_function
	.align	2
	.p2align 3,,7
	.type	ebc_thread, %function
ebc_thread:
.LFB2837:
	.loc 1 1819 0
	.cfi_startproc
.LVL850:
	stp	x29, x30, [sp, -240]!
	.cfi_def_cfa_offset 240
	.cfi_offset 29, -240
	.cfi_offset 30, -232
	add	x29, sp, 0
	.cfi_def_cfa_register 29
	stp	x21, x22, [sp, 32]
	.cfi_offset 21, -208
	.cfi_offset 22, -200
	.loc 1 1820 0
	adrp	x21, .LANCHOR0
	.loc 1 1819 0
	stp	x19, x20, [sp, 16]
	adrp	x22, .LANCHOR1
	stp	x23, x24, [sp, 48]
.LBB1848:
.LBB1849:
.LBB1850:
	.loc 1 2147 0
	add	x22, x22, :lo12:.LANCHOR1
.LBE1850:
.LBE1849:
.LBE1848:
	.loc 1 1819 0
	stp	x27, x28, [sp, 80]
	.cfi_offset 19, -224
	.cfi_offset 20, -216
	.cfi_offset 23, -192
	.cfi_offset 24, -184
	.cfi_offset 27, -160
	.cfi_offset 28, -152
	adrp	x23, __stack_chk_guard
	stp	x25, x26, [sp, 64]
	.cfi_offset 25, -176
	.cfi_offset 26, -168
	.loc 1 1819 0
	add	x0, x23, :lo12:__stack_chk_guard
.LVL851:
	.loc 1 1820 0
	ldr	x20, [x21, #:lo12:.LANCHOR0]
.LVL852:
.LBB1855:
.LBB1853:
.LBB1851:
	.loc 1 2147 0
	add	x19, x22, 304
.LBE1851:
.LBE1853:
.LBE1855:
	.loc 1 1819 0
	ldr	x1, [x0]
	str	x1, [x29, 232]
	mov	x1,0
	.loc 1 1824 0
	str	wzr, [x29, 108]
	.loc 1 1821 0
	add	x28, x20, 184
.LVL853:
	.p2align 2
.L871:
	.loc 1 1829 0
	ldr	w0, [x28, 624]
.LVL854:
	cbnz	w0, .L1030
.L872:
	.loc 1 1835 0
	bl	ebc_dsp_buf_get
.LVL855:
	mov	x24, x0
	.loc 1 1837 0
	cbz	x0, .L874
	.loc 1 1837 0 is_stmt 0 discriminator 1
	ldr	x0, [x0, 8]
	cbz	x0, .L874
	.loc 1 1839 0 is_stmt 1
	add	x0, x21, :lo12:.LANCHOR0
	ldr	w1, [x0, 16]
	cbz	w1, .L875
	.loc 1 1840 0
	ldr	w1, [x0, 20]
	add	w2, w1, 1
	str	w2, [x0, 20]
	cmp	w1, 5
	ble	.L876
	.loc 1 1841 0
	str	wzr, [x0, 16]
.L876:
	.loc 1 1842 0
	ldr	w2, [x20, 204]
	ldr	w1, [x24, 64]
	ldr	x0, [x24, 16]
	bl	check_black_percent.isra.15
.LVL856:
	cbnz	w0, .L1022
.L875:
	.loc 1 1850 0
	ldr	w0, [x24, 40]
	cmp	w0, 20
	beq	.L1031
	.loc 1 1854 0
	ldr	x1, [x28, 616]
	cbz	x1, .L880
	.loc 1 1855 0
	cmp	w0, 19
	beq	.L1032
	.loc 1 1864 0
	mov	w1, 18
	tst	w0, w1
	beq	.L1022
	.loc 1 1865 0
	ldr	x0, [x28, 104]
	adrp	x1, .LC84
	add	x1, x1, :lo12:.LC84
	bl	_dev_info
.LVL857:
.L879:
	.loc 1 1901 0
	adrp	x25, jiffies
.LVL858:
	mov	x1, 402653184
	add	x0, x20, 632
	ldr	x2, [x25, #:lo12:jiffies]
	add	x1, x2, x1
	bl	mod_timer
.LVL859:
	.loc 1 1903 0
	ldr	w0, [x28, 444]
	cbz	w0, .L891
	ldr	x0, [x28, 216]
.L892:
	.loc 1 1906 0
	ldr	w2, [x0, 40]
	ldr	w3, [x24, 40]
	cmp	w3, w2
	beq	.L893
	.loc 1 1907 0
	ldr	x0, [x28, 104]
	adrp	x1, .LC86
	add	x1, x1, :lo12:.LC86
	bl	_dev_info
.LVL860:
	.loc 1 1909 0
	ldr	w0, [x28, 44]
	cmp	w0, 1
	beq	.L1033
.L1023:
	ldr	w2, [x24, 40]
.L893:
	.loc 1 1916 0
	cmp	w2, 23
	bls	.L1034
	.loc 1 2095 0
	ldr	x0, [x28, 104]
	adrp	x1, .LC94
	add	x1, x1, :lo12:.LC94
	bl	_dev_err
.LVL861:
.L1022:
	.loc 1 2096 0
	mov	x0, x24
	bl	ebc_remove_from_dsp_buf_list
.LVL862:
	.loc 1 2097 0
	mov	x0, x24
	bl	ebc_buf_release
.LVL863:
	.loc 1 1829 0
	ldr	w0, [x28, 624]
	cbz	w0, .L872
	.p2align 2
.L1030:
	.loc 1 1830 0
	ldr	w0, [x28, 200]
	cmp	w0, 1
	beq	.L1035
.L873:
	.loc 1 2153 0
	add	x23, x23, :lo12:__stack_chk_guard
	mov	w0, 0
	ldr	x2, [x29, 232]
	ldr	x1, [x23]
	eor	x1, x2, x1
	cbnz	x1, .L1036
	ldp	x19, x20, [sp, 16]
.LVL864:
	ldp	x21, x22, [sp, 32]
	ldp	x23, x24, [sp, 48]
.LVL865:
	ldp	x25, x26, [sp, 64]
.LVL866:
	ldp	x27, x28, [sp, 80]
	ldp	x29, x30, [sp], 240
	.cfi_remember_state
	.cfi_restore 30
	.cfi_restore 29
	.cfi_restore 27
	.cfi_restore 28
	.cfi_restore 25
	.cfi_restore 26
	.cfi_restore 23
	.cfi_restore 24
	.cfi_restore 21
	.cfi_restore 22
	.cfi_restore 19
	.cfi_restore 20
	.cfi_def_cfa 31, 0
	ret
.LVL867:
	.p2align 3
.L874:
	.cfi_restore_state
	.loc 1 2134 0
	ldr	w0, [x28, 44]
	cmp	w0, 1
	beq	.L1037
	.loc 1 2143 0
	ldr	w0, [x28, 200]
	cmp	w0, 1
	beq	.L1038
.LVL868:
.L1026:
	ldr	w0, [x28, 96]
.LVL869:
	.loc 1 2146 0
	cbz	w0, .L1039
.L974:
.LVL870:
.L964:
	.loc 1 2148 0
	str	wzr, [x28, 96]
	b	.L871
.LVL871:
	.p2align 3
.L1039:
.LBB1856:
.LBB1854:
	.loc 1 2147 0 discriminator 1
	mov	w1, 0
	add	x0, x29, 120
	bl	init_wait_entry
.LVL872:
	b	.L975
	.p2align 3
.L1040:
.LVL873:
.LBB1852:
	.loc 1 2147 0 is_stmt 0 discriminator 5
	cbnz	x0, .L964
	.loc 1 2147 0 discriminator 7
	bl	schedule
.LVL874:
.L975:
	.loc 1 2147 0 discriminator 9
	add	x1, x29, 120
	mov	w2, 1
	mov	x0, x19
	bl	prepare_to_wait_event
.LVL875:
	ldr	w1, [x28, 96]
	cbz	w1, .L1040
.LBE1852:
	.loc 1 2147 0 discriminator 4
	add	x1, x29, 120
	mov	x0, x19
	bl	finish_wait
.LVL876:
.LBE1854:
.LBE1856:
	.loc 1 2148 0 is_stmt 1 discriminator 4
	str	wzr, [x28, 96]
	b	.L871
.LVL877:
	.p2align 3
.L1034:
	.loc 1 1916 0
	adrp	x0, .L901
	add	x0, x0, :lo12:.L901
	ldrh	w0, [x0,w2,uxtw #1]
	adr	x1, .Lrtx901
	add	x0, x1, w0, sxth #2
	br	x0
.Lrtx901:
	.section	.rodata
	.align	0
	.align	2
.L901:
	.2byte	(.L900 - .Lrtx901) / 4
	.2byte	(.L902 - .Lrtx901) / 4
	.2byte	(.L979 - .Lrtx901) / 4
	.2byte	(.L979 - .Lrtx901) / 4
	.2byte	(.L979 - .Lrtx901) / 4
	.2byte	(.L979 - .Lrtx901) / 4
	.2byte	(.L979 - .Lrtx901) / 4
	.2byte	(.L904 - .Lrtx901) / 4
	.2byte	(.L904 - .Lrtx901) / 4
	.2byte	(.L979 - .Lrtx901) / 4
	.2byte	(.L979 - .Lrtx901) / 4
	.2byte	(.L904 - .Lrtx901) / 4
	.2byte	(.L979 - .Lrtx901) / 4
	.2byte	(.L979 - .Lrtx901) / 4
	.2byte	(.L904 - .Lrtx901) / 4
	.2byte	(.L904 - .Lrtx901) / 4
	.2byte	(.L979 - .Lrtx901) / 4
	.2byte	(.L979 - .Lrtx901) / 4
	.2byte	(.L979 - .Lrtx901) / 4
	.2byte	(.L979 - .Lrtx901) / 4
	.2byte	(.L979 - .Lrtx901) / 4
	.2byte	(.L979 - .Lrtx901) / 4
	.2byte	(.L900 - .Lrtx901) / 4
	.2byte	(.L900 - .Lrtx901) / 4
	.text
.L979:
	.loc 1 2021 0
	mov	w4, 1
.LVL878:
.L903:
	.loc 1 2028 0
	ldr	x26, [x28, 216]
.LVL879:
	.loc 1 2030 0
	ldr	w0, [x26, 40]
	sub	w1, w0, #22
	.loc 1 2032 0
	cmp	w1, 1
	ccmp	w0, 1, 0, hi
	bhi	.L945
	.loc 1 2035 0
	add	x0, x29, 160
	str	x0, [x28, 216]
	.loc 1 2036 0
	ldr	x0, [x28, 152]
	str	x0, [x29, 176]
	.loc 1 2037 0
	mov	w0, 16
	str	w0, [x29, 224]
.L945:
	.loc 1 2039 0
	str	wzr, [x28, 92]
	.loc 1 2040 0
	str	x24, [x28, 224]
	.loc 1 2043 0
	ldr	w0, [x24, 40]
	sub	w0, w0, #2
	.loc 1 2042 0
	cmp	w0, 14
	bhi	.L946
	.loc 1 2044 0
	ldr	x1, [x28, 216]
	ldr	w0, [x24, 64]
.LBB1857:
.LBB1858:
	.loc 1 1782 0
	ldr	w2, [x1, 64]
	cmp	w0, w2
	beq	.L1041
.L946:
.LBE1858:
.LBE1857:
	.loc 1 2053 0
	cbz	w4, .L1042
	.loc 1 2054 0
	str	wzr, [x29, 108]
.LVL880:
.L952:
	.loc 1 2065 0
	ldr	w0, [x28, 200]
	cbz	w0, .L1043
.L953:
	.loc 1 2068 0
	ldr	x0, [x28, 224]
	ldr	w1, [x0, 64]
.LVL881:
	mov	x0, x20
	bl	ebc_lut_update
.LVL882:
	cbz	w0, .L954
.L1059:
	.loc 1 2069 0
	ldr	x0, [x28, 104]
	adrp	x1, .LC91
	add	x1, x1, :lo12:.LC91
	bl	_dev_err
.LVL883:
	.loc 1 2071 0
	str	x26, [x28, 216]
.LVL884:
.L916:
	.loc 1 2106 0
	ldr	x0, [x28, 224]
	ldr	w0, [x0, 40]
	cmp	w0, 20
	beq	.L1044
.L959:
	.loc 1 2112 0
	cmp	w0, 18
	beq	.L1045
.L960:
	.loc 1 2123 0
	mov	x0, x24
	bl	ebc_remove_from_dsp_buf_list
.LVL885:
	.loc 1 2125 0
	ldr	w0, [x28, 444]
	cbnz	w0, .L1046
.L962:
	.loc 1 2128 0
	mov	w0, 1
	str	w0, [x28, 444]
.L963:
	.loc 1 2130 0
	ldr	x0, [x28, 224]
	str	x0, [x28, 216]
	.loc 1 2131 0
	b	.L871
.LVL886:
.L902:
	.loc 1 1918 0
	ldr	w0, [x28, 628]
	cbz	w0, .L905
	.loc 1 1931 0
	ldr	x2, [x28, 216]
	.loc 1 1919 0
	mov	w0, 1
	.loc 1 1929 0
	str	x24, [x28, 224]
	.loc 1 1919 0
	str	w0, [x28, 632]
	.loc 1 1931 0
	ldr	w0, [x2, 40]
	.loc 1 1934 0
	cmp	w0, 1
	.loc 1 1933 0
	sub	w1, w0, #22
	.loc 1 1934 0
	ccmp	w1, 1, 0, hi
	bls	.L1047
	.loc 1 1935 0
	ldr	w0, [x2, 64]
	cmp	w0, 32
	beq	.L1048
	.loc 1 1938 0
	ldr	x1, [x2, 16]
	ldr	x0, [x28, 160]
	ldrsw	x2, [x28, 20]
	bl	memcpy
.LVL887:
.L1024:
	ldr	w2, [x28, 20]
	ldr	x1, [x28, 160]
.L909:
	.loc 1 1939 0
	ldr	x0, [x28, 144]
	sxtw	x2, w2
	bl	memcpy
.LVL888:
	.loc 1 1940 0
	ldrsw	x2, [x28, 20]
	ldp	x0, x1, [x28, 152]
	bl	memcpy
.LVL889:
	ldr	x0, [x28, 224]
.L911:
.LBB1860:
.LBB1861:
	.loc 1 379 0
	ldp	w3, w16, [x0, 48]
	.loc 1 438 0
	mov	w15, 234881024
	.loc 1 380 0
	ldp	w2, w25, [x0, 56]
	.loc 1 377 0
	cmp	w3, 0
	.loc 1 382 0
	ldr	w1, [x20, 256]
	.loc 1 377 0
	add	w17, w3, 7
	csel	w17, w17, w3, lt
	.loc 1 378 0
	add	w10, w2, 7
	cmp	w2, 0
	.loc 1 382 0
	add	w18, w1, 7
	.loc 1 378 0
	csel	w10, w10, w2, lt
	.loc 1 382 0
	cmp	w1, 0
	csel	w18, w18, w1, lt
	.loc 1 378 0
	asr	w10, w10, 3
	.loc 1 382 0
	asr	w18, w18, 3
.LVL890:
	.loc 1 378 0
	add	w10, w10, 1
.LVL891:
	ldr	w1, [x20, 252]
	.loc 1 385 0
	cmp	w10, w18
.LBE1861:
.LBE1860:
	.loc 1 1947 0
	ldr	x13, [x0, 16]
.LBB1866:
.LBB1862:
	.loc 1 385 0
	sub	w0, w18, #1
	csel	w10, w0, w10, ge
.LVL892:
	.loc 1 387 0
	cmp	w1, w25
	sub	w1, w1, #1
	.loc 1 444 0
	mov	w14, -536870912
	.loc 1 387 0
	csel	w25, w1, w25, le
	.loc 1 377 0
	asr	w17, w17, 3
.LVL893:
	mul	w7, w16, w18
	.loc 1 389 0
	cmp	w16, w25
.LBE1862:
.LBE1866:
	.loc 1 1947 0
	ldr	x9, [x28, 144]
	.loc 1 1948 0
	ldp	x12, x11, [x28, 160]
.LBB1867:
.LBB1863:
	.loc 1 389 0
	bgt	.L919
.LVL894:
	.p2align 2
.L1000:
	.loc 1 394 0
	mov	w5, w17
	cmp	w17, w10
	ble	.L1001
	b	.L936
.LVL895:
	.p2align 3
.L920:
	.loc 1 407 0
	tst	x2, 65280
	bne	.L921
	.loc 1 408 0
	and	w27, w0, 240
	cmp	w27, 224
	beq	.L1049
	.loc 1 411 0
	orr	w3, w3, 240
.L921:
	.loc 1 413 0
	tst	x2, 16711680
	bne	.L923
	.loc 1 414 0
	and	w27, w0, 3840
	cmp	w27, 3584
	beq	.L1050
	.loc 1 417 0
	orr	w3, w3, 3840
.L923:
	.loc 1 419 0
	tst	x2, 4278190080
	bne	.L925
	.loc 1 420 0
	and	w27, w0, 61440
	cmp	w27, 57344
	beq	.L1051
	.loc 1 423 0
	orr	w3, w3, 61440
.L925:
	.loc 1 425 0
	tst	x2, 1095216660480
	bne	.L927
	.loc 1 426 0
	and	w27, w0, 983040
	cmp	w27, 917504
	beq	.L1052
	.loc 1 429 0
	orr	w3, w3, 983040
.L927:
	.loc 1 431 0
	tst	x2, 280375465082880
	bne	.L929
	.loc 1 432 0
	and	w27, w0, 15728640
	cmp	w27, 14680064
	beq	.L1053
	.loc 1 435 0
	orr	w3, w3, 15728640
.L929:
	.loc 1 437 0
	tst	x2, 71776119061217280
	bne	.L931
	.loc 1 438 0
	and	w27, w0, 251658240
	cmp	w27, w15
	beq	.L1054
	.loc 1 441 0
	orr	w3, w3, 251658240
.L931:
	.loc 1 443 0
	tst	x2, -72057594037927936
	bne	.L933
	.loc 1 444 0
	and	w2, w0, -268435456
.LVL896:
	cmp	w2, w14
	beq	.L1055
	.loc 1 447 0
	orr	w3, w3, -268435456
.LVL897:
.L933:
	.loc 1 450 0
	and	w0, w0, w26
.LVL898:
	.loc 1 394 0
	add	w5, w5, 1
	eor	w0, w0, w4
	cmp	w5, w10
	and	w0, w0, w3
	.loc 1 450 0
	eor	w0, w4, w0
	.loc 1 451 0
	str	w0, [x9, x1]
	.loc 1 394 0
	bgt	.L936
.LVL899:
.L1001:
	.loc 1 395 0
	sxtw	x1, w5
.LVL900:
	.loc 1 399 0
	mov	w3, 0
	.loc 1 398 0
	lsl	x0, x1, 3
	.loc 1 395 0
	lsl	x1, x1, 2
.LVL901:
	.loc 1 398 0
	add	x0, x0, x7, sxtw 3
	add	x1, x1, x7, sxtw 2
	ldr	x2, [x11, x0]
	.loc 1 395 0
	ldr	w4, [x9, x1]
	.loc 1 396 0
	ldr	w0, [x13, x1]
	.loc 1 401 0
	and	x27, x2, 255
	.loc 1 397 0
	ldr	w26, [x12, x1]
.LVL902:
	.loc 1 401 0
	cbnz	x27, .L920
.LVL903:
	.loc 1 402 0
	and	w27, w0, 15
	.loc 1 405 0
	mov	w3, 15
	.loc 1 402 0
	cmp	w27, 14
	bne	.L920
	.loc 1 403 0
	orr	w4, w4, w3
.LVL904:
	.loc 1 399 0
	mov	w3, 0
.LVL905:
	b	.L920
.LVL906:
.L900:
.LBE1863:
.LBE1867:
	.loc 1 1970 0
	add	x0, x22, 680
	bl	down_write
.LVL907:
	.loc 1 1973 0
	ldr	x1, [x28, 216]
	.loc 1 1971 0
	str	x24, [x28, 224]
	.loc 1 1974 0
	ldr	w0, [x1, 40]
	sub	w2, w0, #22
	.loc 1 1976 0
	cmp	w2, 1
	ccmp	w0, 1, 0, hi
	bls	.L938
	.loc 1 1977 0
	ldr	w0, [x1, 64]
	cmp	w0, 32
	beq	.L1056
	.loc 1 1980 0
	ldrsw	x2, [x28, 20]
	ldr	x1, [x1, 16]
	ldr	x0, [x28, 152]
	bl	memcpy
.LVL908:
.L1025:
	ldr	w2, [x28, 20]
	ldr	x1, [x28, 152]
.L940:
	.loc 1 1981 0
	ldr	x0, [x28, 144]
	sxtw	x2, w2
	bl	memcpy
.LVL909:
	b	.L942
.L904:
	.loc 1 1916 0
	mov	w4, 0
.LVL910:
	b	.L903
.LVL911:
	.p2align 3
.L891:
	.loc 1 1904 0
	mov	x0, x24
	str	x24, [x28, 216]
	b	.L892
.LVL912:
	.p2align 3
.L880:
	.loc 1 1874 0
	cmp	w0, 18
	ccmp	w0, 21, 4, ne
	bne	.L884
	.loc 1 1875 0
	str	wzr, [x28, 632]
	b	.L879
	.p2align 3
.L1031:
	.loc 1 1852 0
	str	wzr, [x28, 628]
	.loc 1 1851 0
	str	wzr, [x28, 632]
	b	.L879
	.p2align 3
.L1037:
.LBB1868:
	.loc 1 2135 0 discriminator 1
	ldr	w0, [x28, 96]
	cbnz	w0, .L964
.LBB1869:
	.loc 1 2135 0 is_stmt 0 discriminator 3
	mov	w1, 0
	add	x0, x29, 120
	bl	init_wait_entry
.LVL913:
	b	.L968
	.p2align 3
.L1057:
.LBB1870:
	.loc 1 2135 0 discriminator 7
	ldr	w1, [x28, 96]
	cbnz	w1, .L965
.LVL914:
	.loc 1 2135 0 discriminator 9
	cbnz	x0, .L1026
	.loc 1 2135 0 discriminator 11
	bl	schedule
.LVL915:
.L968:
	.loc 1 2135 0 discriminator 13
	add	x1, x29, 120
	mov	w2, 1
	mov	x0, x19
	bl	prepare_to_wait_event
.LVL916:
	ldr	w1, [x28, 44]
	cbnz	w1, .L1057
.L965:
.LBE1870:
	.loc 1 2135 0 discriminator 8
	mov	x0, x19
	add	x1, x29, 120
	bl	finish_wait
.LVL917:
	ldr	w0, [x28, 44]
.LBE1869:
.LBE1868:
	.loc 1 2138 0 is_stmt 1 discriminator 8
	cbnz	w0, .L1026
	.loc 1 2143 0
	ldr	w0, [x28, 200]
	cmp	w0, 1
	bne	.L1026
	.p2align 2
.L1038:
.LBB1871:
.LBB1872:
	mov	w1, 0
	mov	x0, x20
	bl	ebc_power_set.part.13
.LVL918:
	b	.L1026
	.p2align 3
.L884:
.LBE1872:
.LBE1871:
	.loc 1 1877 0
	ldr	w1, [x28, 632]
	cmp	w1, 0
	ccmp	w0, 1, 4, ne
	beq	.L879
	.loc 1 1878 0
	add	x0, x22, 680
	bl	down_write
.LVL919:
	.loc 1 1879 0
	ldr	w0, [x24, 64]
	cmp	w0, 32
	bne	.L885
	.loc 1 1880 0
	ldr	w4, [x28, 20]
.LBB1873:
.LBB1874:
	.loc 1 1807 0
	mov	x0, 0
	ldr	x3, [x24, 16]
.LVL920:
	cmp	w4, 0
.LBE1874:
.LBE1873:
	.loc 1 1880 0
	ldr	x5, [x28, 160]
.LBB1876:
.LBB1875:
	.loc 1 1807 0
	ble	.L887
	.p2align 2
.L1002:
	.loc 1 1809 0
	ldrb	w1, [x3], 2
	.loc 1 1811 0
	ldrb	w2, [x3, -1]
	and	w2, w2, -16
	orr	w1, w2, w1, lsr 4
	.loc 1 1812 0
	strb	w1, [x5, x0]
	add	x0, x0, 1
	.loc 1 1807 0
	cmp	w4, w0
	bgt	.L1002
.L887:
.LBE1875:
.LBE1876:
	.loc 1 1883 0
	mov	x0, x24
	bl	ebc_remove_from_dsp_buf_list
.LVL921:
	.loc 1 1884 0
	mov	x0, x24
	bl	ebc_buf_release
.LVL922:
	.loc 1 1886 0
	ldr	x1, [x28, 224]
	mov	x4, x28
	ldr	x0, [x28, 144]
	ldp	x2, x3, [x28, 160]
	ldr	w5, [x1, 40]
	ldr	x1, [x1, 16]
	bl	refresh_new_image2
.LVL923:
	.loc 1 1889 0
	add	x0, x22, 680
	bl	up_write
.LVL924:
	.loc 1 1890 0
	ldr	w0, [x28, 44]
	cbnz	w0, .L871
	.loc 1 1891 0
	mov	w0, 1
	str	w0, [x28, 44]
	.loc 1 1893 0
	ldr	w0, [x28, 200]
	.loc 1 1892 0
	str	wzr, [x28, 92]
	.loc 1 1893 0
	cbz	w0, .L1058
.L890:
	.loc 1 1895 0
	ldr	x0, [x28, 104]
	adrp	x1, .LC85
	ldrb	w2, [x28, 48]
	add	x1, x1, :lo12:.LC85
	bl	_dev_info
.LVL925:
	.loc 1 1896 0
	mov	x0, x20
	bl	ebc_frame_start
.LVL926:
	b	.L871
.LVL927:
	.p2align 3
.L1042:
	.loc 1 2057 0
	ldr	w0, [x28, 64]
	cmp	w0, 0
	ble	.L952
	.loc 1 2058 0
	ldr	w1, [x29, 108]
.LVL928:
	add	w1, w1, 1
	str	w1, [x29, 108]
	.loc 1 2059 0
	cmp	w0, w1
	bgt	.L952
	.loc 1 2060 0
	mov	w0, 2
	str	w0, [x24, 40]
	.loc 1 2061 0
	str	wzr, [x29, 108]
	.loc 1 2065 0
	ldr	w0, [x28, 200]
	cbnz	w0, .L953
.L1043:
	.loc 1 2066 0
	mov	x0, x20
	bl	ebc_power_set.constprop.17
.LVL929:
	.loc 1 2068 0
	ldr	x0, [x28, 224]
	ldr	w1, [x0, 64]
	mov	x0, x20
	bl	ebc_lut_update
.LVL930:
	cbnz	w0, .L1059
.L954:
	.loc 1 2080 0
	ldr	x0, [x28, 224]
	adrp	x1, .LC93
	.loc 1 2077 0
	ldr	w3, [x28, 112]
	.loc 1 2080 0
	add	x1, x1, :lo12:.LC93
	.loc 1 2077 0
	strb	w3, [x28, 48]
	.loc 1 2080 0
	and	w3, w3, 255
	ldr	w2, [x0, 40]
	ldr	x0, [x28, 104]
	bl	_dev_info
.LVL931:
	.loc 1 2081 0
	mov	w0, 1
	str	w0, [x28, 44]
	.loc 1 2082 0
	mov	x0, x20
	bl	ebc_frame_start
.LVL932:
	.loc 1 2084 0
	ldr	x1, [x25, #:lo12:jiffies]
	add	x0, x20, 688
	str	x0, [x29, 96]
	add	x1, x1, 900
	bl	mod_timer
.LVL933:
.LBB1877:
	.loc 1 2085 0
	ldr	w0, [x28, 92]
	cbz	w0, .L1060
.L957:
.LVL934:
.L955:
.LBE1877:
	.loc 1 2087 0 discriminator 11
	ldr	x2, [x25, #:lo12:jiffies]
	mov	x1, 402653184
	ldr	x0, [x29, 96]
.LVL935:
	add	x1, x2, x1
	bl	mod_timer
.LVL936:
	.loc 1 2088 0 discriminator 11
	str	wzr, [x28, 92]
	.loc 1 2106 0 discriminator 11
	ldr	x0, [x28, 224]
	.loc 1 2090 0 discriminator 11
	str	x26, [x28, 216]
	.loc 1 2106 0 discriminator 11
	ldr	w0, [x0, 40]
	cmp	w0, 20
	bne	.L959
.LVL937:
.L1044:
	.loc 1 2109 0
	ldr	x0, [x28, 104]
	.loc 1 2107 0
	mov	w25, 1
.LVL938:
	.loc 1 2108 0
	str	wzr, [x28, 204]
	.loc 1 2109 0
	adrp	x1, .LC95
	.loc 1 2107 0
	str	w25, [x28, 624]
	.loc 1 2109 0
	add	x1, x1, :lo12:.LC95
	bl	_dev_info
.LVL939:
	.loc 1 2110 0
	mov	w2, w25
	mov	w1, w25
	add	x0, x22, 328
	bl	__wake_up_sync
.LVL940:
	.loc 1 2123 0
	mov	x0, x24
	bl	ebc_remove_from_dsp_buf_list
.LVL941:
	.loc 1 2125 0
	ldr	w0, [x28, 444]
	cbz	w0, .L962
.LVL942:
	.p2align 2
.L1046:
	.loc 1 2126 0
	ldr	x0, [x28, 216]
	bl	ebc_buf_release
.LVL943:
	b	.L963
.LVL944:
.L1033:
	.loc 1 1910 0
	ldr	x0, [x28, 104]
	adrp	x1, .LC87
	add	x1, x1, :lo12:.LC87
	bl	_dev_info
.LVL945:
.LBB1881:
	.loc 1 1911 0
	ldr	w0, [x28, 92]
	cbz	w0, .L1061
.L897:
.LVL946:
.L895:
.LBE1881:
	.loc 1 1912 0 discriminator 11
	ldr	x0, [x28, 104]
.LVL947:
	adrp	x1, .LC88
	add	x1, x1, :lo12:.LC88
	bl	_dev_info
.LVL948:
	b	.L1023
.L938:
	.loc 1 1984 0
	ldr	x1, [x24, 16]
	mov	x3, x28
	ldr	x0, [x28, 144]
	ldr	x2, [x28, 168]
	bl	refresh_new_image_auto
.LVL949:
.L942:
	.loc 1 1987 0
	add	x0, x22, 680
	bl	up_write
.LVL950:
	.loc 1 1989 0
	ldr	w0, [x28, 44]
	cbnz	w0, .L916
	.loc 1 1992 0
	ldr	w0, [x28, 200]
	.loc 1 1990 0
	mov	w1, 1
	.loc 1 1991 0
	str	wzr, [x28, 92]
	.loc 1 1990 0
	str	w1, [x28, 44]
	.loc 1 1992 0
	cbz	w0, .L1062
.L943:
	.loc 1 1994 0
	mov	w1, 16
	mov	x0, x20
	bl	ebc_lut_update
.LVL951:
	cmn	w0, #1
	beq	.L1063
	.loc 1 1999 0
	ldr	w3, [x28, 112]
	.loc 1 2002 0
	adrp	x1, .LC92
	ldr	x0, [x28, 104]
	add	x1, x1, :lo12:.LC92
	.loc 1 1999 0
	strb	w3, [x28, 48]
	.loc 1 2002 0
	and	w2, w3, 255
	.loc 1 2000 0
	lsr	w3, w3, 8
	strb	w3, [x28, 49]
	.loc 1 2002 0
	bl	_dev_info
.LVL952:
	.loc 1 2003 0
	mov	x0, x20
	bl	ebc_frame_start
.LVL953:
	b	.L916
.L1047:
	.loc 1 1943 0
	cmp	w0, 0
	mov	x0, x24
	ccmp	w1, 1, 0, ne
	bhi	.L911
	.loc 1 1944 0
	ldrsw	x2, [x28, 20]
	ldp	x1, x0, [x28, 152]
	bl	memcpy
.LVL954:
	ldr	x0, [x28, 224]
	b	.L911
.LVL955:
	.p2align 3
.L1050:
.LBB1885:
.LBB1864:
	.loc 1 415 0
	orr	w4, w4, 3840
	b	.L923
	.p2align 3
.L1051:
	.loc 1 421 0
	orr	w4, w4, 61440
	b	.L925
	.p2align 3
.L1052:
	.loc 1 427 0
	orr	w4, w4, 983040
	b	.L927
	.p2align 3
.L1053:
	.loc 1 433 0
	orr	w4, w4, 15728640
	b	.L929
	.p2align 3
.L1054:
	.loc 1 439 0
	orr	w4, w4, 251658240
	b	.L931
.LVL956:
	.p2align 3
.L1055:
	.loc 1 445 0
	orr	w4, w4, -268435456
.LVL957:
	.loc 1 450 0
	and	w0, w0, w26
.LVL958:
	eor	w0, w0, w4
.LVL959:
	.loc 1 394 0
	add	w5, w5, 1
	and	w0, w0, w3
	cmp	w5, w10
	.loc 1 450 0
	eor	w0, w4, w0
	.loc 1 451 0
	str	w0, [x9, x1]
	.loc 1 394 0
	ble	.L1001
.LVL960:
	.p2align 2
.L936:
	.loc 1 389 0
	add	w16, w16, 1
	add	w7, w7, w18
	cmp	w16, w25
	ble	.L1000
.L919:
.LBE1864:
.LBE1885:
	.loc 1 1951 0
	ldr	w0, [x28, 44]
	cbnz	w0, .L916
	.loc 1 1954 0
	ldr	w0, [x28, 200]
	.loc 1 1952 0
	mov	w1, 1
	.loc 1 1953 0
	str	wzr, [x28, 92]
	.loc 1 1952 0
	str	w1, [x28, 44]
	.loc 1 1954 0
	cbz	w0, .L1064
.L937:
	.loc 1 1956 0
	mov	w1, 16
	mov	x0, x20
	bl	ebc_lut_update
.LVL961:
	cmn	w0, #1
	beq	.L916
	.loc 1 1960 0
	ldr	w2, [x28, 112]
	.loc 1 1963 0
	adrp	x1, .LC90
	ldr	x0, [x28, 104]
	add	x1, x1, :lo12:.LC90
	.loc 1 1960 0
	strb	w2, [x28, 48]
	.loc 1 1961 0
	lsr	w3, w2, 8
	.loc 1 1963 0
	and	w2, w2, 255
	.loc 1 1961 0
	strb	w3, [x28, 49]
	.loc 1 1963 0
	and	w3, w3, 255
	bl	_dev_info
.LVL962:
	.loc 1 1964 0
	mov	x0, x20
	bl	ebc_frame_start
.LVL963:
	b	.L916
.LVL964:
	.p2align 3
.L1049:
.LBB1886:
.LBB1865:
	.loc 1 409 0
	orr	w4, w4, 240
	b	.L921
.LVL965:
.L1045:
.LBE1865:
.LBE1886:
	.loc 1 2113 0
	ldr	x0, [x28, 104]
	adrp	x1, .LC96
	add	x1, x1, :lo12:.LC96
	bl	_dev_info
.LVL966:
	.loc 1 2114 0
	ldr	w0, [x28, 616]
	cbz	w0, .L1065
.L961:
	.loc 1 2119 0
	add	x0, x21, :lo12:.LANCHOR0
	.loc 1 2117 0
	mov	w2, 1
	.loc 1 2116 0
	str	wzr, [x28, 204]
	.loc 1 2120 0
	mov	w1, w2
	.loc 1 2117 0
	str	w2, [x28, 616]
	.loc 1 2118 0
	str	wzr, [x28, 632]
	.loc 1 2119 0
	str	wzr, [x0, 16]
	.loc 1 2120 0
	add	x0, x22, 328
	bl	__wake_up_sync
.LVL967:
	b	.L960
.LVL968:
.L905:
	.loc 1 1922 0
	ldr	x0, [x28, 104]
	adrp	x1, .LC89
	add	x1, x1, :lo12:.LC89
	bl	_dev_info
.LVL969:
	.loc 1 1923 0
	mov	x0, x24
	bl	ebc_remove_from_dsp_buf_list
.LVL970:
	.loc 1 1924 0
	mov	x0, x24
	bl	ebc_buf_release
.LVL971:
	.loc 1 1926 0
	b	.L871
.LVL972:
.L1041:
	.loc 1 2044 0
	ldr	w2, [x28, 20]
.LBB1887:
.LBB1859:
	.loc 1 1786 0
	cmp	w0, 32
.LVL973:
	lsl	w0, w2, 1
	csel	w2, w0, w2, eq
	.loc 1 1787 0
	cmp	w2, 0
	add	w0, w2, 7
	csel	w0, w0, w2, lt
.LVL974:
	asr	w0, w0, 3
.LVL975:
	cmp	w0, 0
	ble	.L948
	ldr	x7, [x1, 16]
	ldr	x5, [x24, 16]
	.loc 1 1791 0
	ldr	x2, [x7]
	ldr	x1, [x5]
	cmp	x2, x1
	bne	.L946
	sub	w1, w0, #1
	mov	x0, 8
	add	x1, x1, 1
	lsl	x1, x1, 3
	b	.L950
	.p2align 3
.L951:
	.loc 1 1788 0
	ldr	x3, [x5, x0]
	add	x0, x0, 8
	.loc 1 1789 0
	add	x2, x7, x0
	.loc 1 1791 0
	ldr	x2, [x2, -8]
	cmp	x3, x2
	bne	.L946
.L950:
	.loc 1 1787 0
	cmp	x0, x1
	bne	.L951
.L948:
.LBE1859:
.LBE1887:
	.loc 1 2045 0
	ldr	x0, [x28, 104]
	adrp	x1, .LC97
	add	x1, x1, :lo12:.LC97
	bl	_dev_info
.LVL976:
	.loc 1 2047 0
	str	x26, [x28, 216]
	.loc 1 2049 0
	b	.L916
.LVL977:
.L1056:
	.loc 1 1978 0
	ldr	w2, [x28, 20]
	ldr	x5, [x1, 16]
.LBB1888:
.LBB1889:
	.loc 1 1807 0
	cmp	w2, 0
.LBE1889:
.LBE1888:
	.loc 1 1978 0
	ldr	x1, [x28, 152]
.LBB1891:
.LBB1890:
	.loc 1 1807 0
	ble	.L940
	mov	x0, 0
.LVL978:
	.p2align 2
.L941:
	.loc 1 1809 0
	ldrb	w3, [x5], 2
	.loc 1 1811 0
	ldrb	w4, [x5, -1]
	and	w4, w4, -16
	orr	w3, w4, w3, lsr 4
	.loc 1 1812 0
	strb	w3, [x1, x0]
	add	x0, x0, 1
	.loc 1 1807 0
	cmp	w2, w0
	bgt	.L941
	b	.L1025
.LVL979:
.L1065:
.LBE1890:
.LBE1891:
	.loc 1 2115 0
	mov	x0, 2
	bl	ebc_notify
.LVL980:
	b	.L961
.LVL981:
.L1048:
	.loc 1 1936 0
	ldr	x5, [x2, 16]
	ldr	w2, [x28, 20]
	ldr	x1, [x28, 160]
.LBB1892:
.LBB1893:
	.loc 1 1807 0
	cmp	w2, 0
	ble	.L909
	mov	x0, 0
.LVL982:
	.p2align 2
.L910:
	.loc 1 1809 0
	ldrb	w3, [x5], 2
	.loc 1 1811 0
	ldrb	w4, [x5, -1]
	and	w4, w4, -16
	orr	w3, w4, w3, lsr 4
	.loc 1 1812 0
	strb	w3, [x1, x0]
	add	x0, x0, 1
	.loc 1 1807 0
	cmp	w2, w0
	bgt	.L910
	b	.L1024
.LVL983:
.L1064:
.LBE1893:
.LBE1892:
	.loc 1 1955 0
	mov	x0, x20
	bl	ebc_power_set.constprop.17
.LVL984:
	b	.L937
.LVL985:
.L1061:
.LBB1894:
.LBB1882:
.LBB1883:
	.loc 1 1911 0 discriminator 1
	add	x26, x22, 352
.LVL986:
.LBE1883:
	mov	w1, 0
	add	x0, x29, 120
	bl	init_wait_entry
.LVL987:
	b	.L898
	.p2align 3
.L1066:
.LVL988:
.LBB1884:
	.loc 1 1911 0 is_stmt 0 discriminator 5
	cbnz	x0, .L895
	.loc 1 1911 0 discriminator 7
	bl	schedule
.LVL989:
.L898:
	.loc 1 1911 0 discriminator 9
	add	x1, x29, 120
	mov	w2, 1
	mov	x0, x26
	bl	prepare_to_wait_event
.LVL990:
	ldr	w1, [x28, 92]
	cbz	w1, .L1066
.LBE1884:
	.loc 1 1911 0 discriminator 4
	mov	x0, x26
	add	x1, x29, 120
	bl	finish_wait
.LVL991:
	b	.L895
.LVL992:
.L1032:
.LBE1882:
.LBE1894:
	.loc 1 1856 0 is_stmt 1
	str	wzr, [x28, 616]
	.loc 1 1857 0
	mov	x0, 3
	bl	ebc_notify
.LVL993:
	.loc 1 1858 0
	ldr	x0, [x28, 104]
	adrp	x1, .LC83
	add	x1, x1, :lo12:.LC83
	bl	_dev_info
.LVL994:
	.loc 1 1861 0
	ldr	w2, [x20, 204]
	.loc 1 1859 0
	add	x3, x21, :lo12:.LANCHOR0
	.loc 1 1861 0
	ldr	w1, [x24, 64]
	.loc 1 1859 0
	mov	w4, 1
	.loc 1 1861 0
	ldr	x0, [x24, 16]
	.loc 1 1860 0
	stp	w4, wzr, [x3, 16]
	.loc 1 1861 0
	bl	check_black_percent.isra.15
.LVL995:
	cbnz	w0, .L871
	b	.L879
.LVL996:
.L1060:
.LBB1895:
.LBB1878:
.LBB1879:
	.loc 1 2085 0 discriminator 1
	add	x27, x22, 352
.LBE1879:
	mov	w1, 0
	add	x0, x29, 120
	bl	init_wait_entry
.LVL997:
	b	.L958
	.p2align 3
.L1067:
.LVL998:
.LBB1880:
	.loc 1 2085 0 is_stmt 0 discriminator 5
	cbnz	x0, .L955
	.loc 1 2085 0 discriminator 7
	bl	schedule
.LVL999:
.L958:
	.loc 1 2085 0 discriminator 9
	add	x1, x29, 120
	mov	w2, 1
	mov	x0, x27
	bl	prepare_to_wait_event
.LVL1000:
	ldr	w1, [x28, 92]
	cbz	w1, .L1067
.LBE1880:
	.loc 1 2085 0 discriminator 4
	mov	x0, x27
	add	x1, x29, 120
	bl	finish_wait
.LVL1001:
	b	.L955
.LVL1002:
.L1035:
.LBE1878:
.LBE1895:
.LBB1896:
.LBB1897:
	mov	w1, 0
	mov	x0, x20
	bl	ebc_power_set.part.13
.LVL1003:
	b	.L873
.L885:
.LBE1897:
.LBE1896:
	.loc 1 1882 0 is_stmt 1
	ldrsw	x2, [x28, 20]
	ldr	x1, [x24, 16]
	ldr	x0, [x28, 160]
	bl	memcpy
.LVL1004:
	b	.L887
.LVL1005:
.L1063:
	.loc 1 1995 0
	ldr	x0, [x28, 104]
	adrp	x1, .LC91
	add	x1, x1, :lo12:.LC91
	bl	_dev_err
.LVL1006:
	.loc 1 1996 0
	b	.L916
.L1062:
	.loc 1 1993 0
	mov	x0, x20
	bl	ebc_power_set.constprop.17
.LVL1007:
	b	.L943
.LVL1008:
.L1058:
	.loc 1 1894 0
	mov	x0, x20
	bl	ebc_power_set.constprop.17
.LVL1009:
	b	.L890
.L1036:
	.loc 1 2153 0
	bl	__stack_chk_fail
.LVL1010:
	.cfi_endproc
.LFE2837:
	.size	ebc_thread, .-ebc_thread
	.data
	.align	3
	.set	.LANCHOR1,. + 0
	.type	ebc_driver, %object
	.size	ebc_driver, 224
ebc_driver:
	.xword	ebc_probe
	.xword	ebc_remove
	.zero	24
	.xword	.LC98
	.zero	32
	.xword	ebc_match
	.zero	64
	.xword	ebc_pm
	.zero	48
	.zero	16
	.type	ebc_misc, %object
	.size	ebc_misc, 80
ebc_misc:
	.word	243
	.zero	4
	.xword	.LC47
	.xword	ebc_ops
	.zero	56
	.type	ebc_thread_wq, %object
	.size	ebc_thread_wq, 24
ebc_thread_wq:
	.word	0
	.zero	4
	.xword	ebc_thread_wq+8
	.xword	ebc_thread_wq+8
	.type	ebc_poweroff_wq, %object
	.size	ebc_poweroff_wq, 24
ebc_poweroff_wq:
	.word	0
	.zero	4
	.xword	ebc_poweroff_wq+8
	.xword	ebc_poweroff_wq+8
	.type	ebc_wq, %object
	.size	ebc_wq, 24
ebc_wq:
	.word	0
	.zero	4
	.xword	ebc_wq+8
	.xword	ebc_wq+8
	.type	waveform_misc, %object
	.size	waveform_misc, 80
waveform_misc:
	.word	244
	.zero	4
	.xword	.LC106
	.xword	waveform_ops
	.zero	56
	.type	dev_attr_waveform_version, %object
	.size	dev_attr_waveform_version, 32
dev_attr_waveform_version:
	.xword	.LC105
	.hword	292
	.zero	6
	.xword	waveform_version_read
	.xword	0
	.type	dev_attr_pmic_name, %object
	.size	dev_attr_pmic_name, 32
dev_attr_pmic_name:
	.xword	.LC104
	.hword	292
	.zero	6
	.xword	pmic_name_read
	.xword	0
	.type	dev_attr_pmic_temp, %object
	.size	dev_attr_pmic_temp, 32
dev_attr_pmic_temp:
	.xword	.LC103
	.hword	292
	.zero	6
	.xword	pmic_temp_read
	.xword	0
	.type	dev_attr_pmic_vcom, %object
	.size	dev_attr_pmic_vcom, 32
dev_attr_pmic_vcom:
	.xword	.LC102
	.hword	420
	.zero	6
	.xword	pmic_vcom_read
	.xword	pmic_vcom_write
	.type	dev_attr_ebc_version, %object
	.size	dev_attr_ebc_version, 32
dev_attr_ebc_version:
	.xword	.LC101
	.hword	292
	.zero	6
	.xword	ebc_version_read
	.xword	0
	.type	dev_attr_ebc_state, %object
	.size	dev_attr_ebc_state, 32
dev_attr_ebc_state:
	.xword	.LC100
	.hword	292
	.zero	6
	.xword	ebc_state_read
	.xword	0
	.type	dev_attr_ebc_buf_state, %object
	.size	dev_attr_ebc_buf_state, 32
dev_attr_ebc_buf_state:
	.xword	.LC99
	.hword	292
	.zero	6
	.xword	ebc_buf_state_read
	.xword	0
	.type	auto_buf_sema, %object
	.size	auto_buf_sema, 48
auto_buf_sema:
	.xword	0
	.xword	auto_buf_sema+8
	.xword	auto_buf_sema+8
	.word	0
	.word	0
	.xword	0
	.zero	8
	.type	ebc_auto_thread_sem, %object
	.size	ebc_auto_thread_sem, 24
ebc_auto_thread_sem:
	.word	0
	.word	1
	.xword	ebc_auto_thread_sem+8
	.xword	ebc_auto_thread_sem+8
	.bss
	.align	3
	.set	.LANCHOR0,. + 0
	.type	global_ebc, %object
	.size	global_ebc, 8
global_ebc:
	.zero	8
	.type	ebc_auto_task, %object
	.size	ebc_auto_task, 8
ebc_auto_task:
	.zero	8
	.type	resume_count_start, %object
	.size	resume_count_start, 4
resume_count_start:
	.zero	4
	.type	resume_frame_count, %object
	.size	resume_frame_count, 4
resume_frame_count:
	.zero	4
	.section	.rodata
	.align	3
	.set	.LANCHOR2,. + 0
	.type	__func__.35197, %object
	.size	__func__.35197, 11
__func__.35197:
	.string	"ebc_io_ctl"
	.align	3
	.set	.LANCHOR3,. + 0
	.type	__func__.34956, %object
	.size	__func__.34956, 16
__func__.34956:
	.string	"ebc_frame_start"
	.type	__func__.35507, %object
	.size	__func__.35507, 12
__func__.35507:
	.string	"ebc_suspend"
	.zero	4
	.type	__func__.35441, %object
	.size	__func__.35441, 19
__func__.35441:
	.string	"ebc_lut_table_init"
	.zero	5
	.type	ebc_match, %object
	.size	ebc_match, 400
ebc_match:
	.zero	64
	.string	"rockchip,ebc-dev"
	.zero	111
	.zero	8
	.zero	200
	.type	ebc_pm, %object
	.size	ebc_pm, 184
ebc_pm:
	.zero	16
	.xword	ebc_suspend
	.xword	ebc_resume
	.zero	152
	.type	waveform_ops, %object
	.size	waveform_ops, 288
waveform_ops:
	.xword	0
	.zero	80
	.xword	waveform_mmap
	.zero	8
	.xword	waveform_open
	.zero	176
	.type	ebc_ops, %object
	.size	ebc_ops, 288
ebc_ops:
	.xword	0
	.zero	64
	.xword	ebc_io_ctl
	.xword	ebc_io_ctl
	.xword	ebc_mmap
	.zero	8
	.xword	ebc_open
	.zero	176
	.section	.discard.addressable,"aw",@progbits
	.align	3
	.type	__addressable_ebc_init3091, %object
	.size	__addressable_ebc_init3091, 8
__addressable_ebc_init3091:
	.xword	ebc_init
	.section	.exitcall.exit,"aw",@progbits
	.align	3
	.type	__exitcall_ebc_exit, %object
	.size	__exitcall_ebc_exit, 8
__exitcall_ebc_exit:
	.xword	ebc_exit
	.section	.rodata.str1.8,"aMS",@progbits,1
	.align	3
.LC0:
	.string	"device resume\n"
	.zero	1
.LC1:
	.string	"%s: argp NULL\n"
	.zero	1
.LC2:
	.string	"enable ebc overlay, you can use auto_overlay mode to show somthing over the system display\n"
	.zero	4
.LC3:
	.string	"disable ebc overlay\n"
	.zero	3
.LC4:
	.string	"EBC_SET_FULL_MODE_NUM failed\n"
	.zero	2
.LC5:
	.string	"EBC_GET_BUFFER_INFO failed\n"
	.zero	4
.LC6:
	.string	"%s: unknow cmd\n"
.LC7:
	.string	"full_mode_num = %d\n"
	.zero	4
.LC8:
	.string	"auto frame done\n"
	.zero	7
.LC9:
	.string	"frame done\n"
	.zero	4
.LC10:
	.string	"temperature = %d, out of range0~50 ,use 0 \n"
	.zero	4
.LC11:
	.string	"temperature = %d, out of range0~50 ,use 50 \n"
	.zero	3
.LC12:
	.string	"ebc_pmic_read_temp failed, ret = %d\n"
	.zero	3
.LC13:
	.string	"lut update use temperature = %d\n"
	.zero	7
.LC14:
	.string	"get lut data failed\n"
	.zero	3
.LC15:
	.string	"%d\n"
	.zero	4
.LC16:
	.string	"2.17"
	.zero	3
.LC17:
	.string	"%s\n"
	.zero	4
.LC18:
	.string	"invalid value = %s\n"
	.zero	4
.LC19:
	.string	"set vcom value failed\n"
	.zero	1
.LC20:
	.string	"%s: overlay no need to update\n"
	.zero	1
.LC21:
	.string	"%s: auto no need to update\n"
	.zero	4
.LC22:
	.string	"ebc hw power off\n"
	.zero	6
.LC23:
	.string	"%s: device is busy now...\n"
	.zero	5
.LC24:
	.string	"device suspend\n"
.LC25:
	.string	"black point > 90percent, skip this frame\n"
	.zero	6
.LC26:
	.string	"ebc_tcon"
	.zero	7
.LC27:
	.string	"not find ebc tcon\n"
	.zero	5
.LC28:
	.string	"pmic"
	.zero	3
.LC29:
	.string	"wrong pmics number\n"
	.zero	4
.LC30:
	.string	"not find pmic node\n"
	.zero	4
.LC31:
	.string	"not find pmic i2c client\n"
	.zero	6
.LC32:
	.string	"use pmic%d\n"
	.zero	4
.LC33:
	.string	"get drvdata from pmic client failed\n"
	.zero	3
.LC34:
	.string	"panel,width"
	.zero	4
.LC35:
	.string	"panel,panel_color"
	.zero	6
.LC36:
	.string	"panel,mirror"
	.zero	3
.LC37:
	.string	"panel,width-mm"
	.zero	1
.LC38:
	.string	"panel,height-mm"
.LC39:
	.string	"memory-region"
	.zero	2
.LC40:
	.string	"Couldn't address to resource for reserved memory\n"
	.zero	6
.LC41:
	.string	"waveform-region"
.LC42:
	.string	"%s:%d: failed to get mem from reserved\n"
.LC43:
	.string	"Failed to read waveform from mem, we use waveform file from kernel file instead\n"
	.zero	7
.LC44:
	.string	"Failed to read waveform file from kernel, no waveform!!!\n"
	.zero	6
.LC45:
	.string	"failed to create ebc_task thread\n"
	.zero	6
.LC46:
	.string	"ebc_thread"
	.zero	5
.LC47:
	.string	"ebc"
	.zero	4
.LC48:
	.string	"ulogo_addr="
	.zero	4
.LC49:
	.string	"klogo_addr="
	.zero	4
.LC50:
	.string	"ulogo_addr=0x%x"
.LC51:
	.string	"have ulogo display, ulogo addr = 0x%x\n"
	.zero	1
.LC52:
	.string	"malloc ulogo buffer failed\n"
	.zero	4
.LC53:
	.string	"klogo_addr=0x%x"
.LC54:
	.string	"need show klogo, klogo addr = 0x%x\n"
	.zero	4
.LC55:
	.string	"malloc klogo buffer failed\n"
	.zero	4
.LC56:
	.string	"no uboot logo, panel init\n"
	.zero	5
.LC57:
	.string	"rockchip ebc driver %s probe success\n"
	.zero	2
.LC58:
	.string	"panel,height"
	.zero	3
.LC59:
	.string	"panel,vir_width"
.LC60:
	.string	"panel,vir_height"
	.zero	7
.LC61:
	.string	"panel,sdck"
	.zero	5
.LC62:
	.string	"panel,lsl"
	.zero	6
.LC63:
	.string	"panel,lbl"
	.zero	6
.LC64:
	.string	"panel,ldl"
	.zero	6
.LC65:
	.string	"panel,lel"
	.zero	6
.LC66:
	.string	"panel,gdck-sta"
	.zero	1
.LC67:
	.string	"panel,lgonl"
	.zero	4
.LC68:
	.string	"panel,fsl"
	.zero	6
.LC69:
	.string	"panel,fbl"
	.zero	6
.LC70:
	.string	"panel,fdl"
	.zero	6
.LC71:
	.string	"panel,fel"
	.zero	6
.LC72:
	.string	"panel,panel_16bit"
	.zero	6
.LC73:
	.string	"buffer manage init failed\n"
	.zero	5
.LC74:
	.string	"lut table init failed\n"
	.zero	1
.LC75:
	.string	"auto-refresh-wq"
.LC76:
	.string	"%s"
	.zero	5
.LC77:
	.string	"ebc_task"
	.zero	7
.LC78:
	.string	"failed to run ebc thread\n"
	.zero	6
.LC79:
	.string	"task init failed\n"
	.zero	6
.LC80:
	.string	"failed to probe panel: %d\n"
	.zero	5
.LC81:
	.string	"ebc hw power on\n"
	.zero	7
.LC82:
	.string	"ebc_info->auto_need_refresh == 0, check again\n"
	.zero	1
.LC83:
	.string	"early resume\n"
	.zero	2
.LC84:
	.string	"refresh suspend logo\n"
	.zero	2
.LC85:
	.string	"overlay mode start, update background, frame_total=%d\n"
	.zero	1
.LC86:
	.string	"change display mode from %d to %d\n"
	.zero	5
.LC87:
	.string	"ebc is busy now, waiting prev refresh mode end...\n"
	.zero	5
.LC88:
	.string	"prev refresh mode end\n"
	.zero	1
.LC89:
	.string	"overlay disabled, drop EPD_OVERLAY frame\n"
	.zero	6
.LC90:
	.string	"overlay mode start, frame_total=%d, bw_frame = %d\n"
	.zero	5
.LC91:
	.string	"ebc_lut_update err\n"
	.zero	4
.LC92:
	.string	"auto mode start, frame_total=%d\n"
	.zero	7
.LC93:
	.string	"frame start, mode = %d, framecount = %d\n"
	.zero	7
.LC94:
	.string	"ebc buffer mode %d error!!!\n"
	.zero	3
.LC95:
	.string	"power off\n"
	.zero	5
.LC96:
	.string	"early suspend\n"
	.zero	1
.LC97:
	.string	"check_part_mode==0, no need refresh\n"
	.zero	3
.LC98:
	.string	"ebc-dev"
.LC99:
	.string	"ebc_buf_state"
	.zero	2
.LC100:
	.string	"ebc_state"
	.zero	6
.LC101:
	.string	"ebc_version"
	.zero	4
.LC102:
	.string	"pmic_vcom"
	.zero	6
.LC103:
	.string	"pmic_temp"
	.zero	6
.LC104:
	.string	"pmic_name"
	.zero	6
.LC105:
	.string	"waveform_version"
	.zero	7
.LC106:
	.string	"waveform"
	.text
.Letext0:
	.file 19 "./include/uapi/asm-generic/int-ll64.h"
	.file 20 "./include/asm-generic/int-ll64.h"
	.file 21 "./include/uapi/asm-generic/posix_types.h"
	.file 22 "./include/uapi/linux/types.h"
	.file 23 "./include/linux/export.h"
	.file 24 "./include/linux/types.h"
	.file 25 "./arch/arm64/include/asm/insn.h"
	.file 26 "./include/linux/init.h"
	.file 27 "./arch/arm64/include/asm/alternative.h"
	.file 28 "./include/asm-generic/atomic-long.h"
	.file 29 "./arch/arm64/include/asm/cache.h"
	.file 30 "./include/linux/printk.h"
	.file 31 "./include/linux/fs.h"
	.file 32 "./include/linux/kernel.h"
	.file 33 "./include/linux/notifier.h"
	.file 34 "./include/asm-generic/bug.h"
	.file 35 "./include/linux/time64.h"
	.file 36 "./include/uapi/linux/time.h"
	.file 37 "./include/linux/restart_block.h"
	.file 38 "./include/linux/compat_time.h"
	.file 39 "./arch/arm64/include/asm/memory.h"
	.file 40 "./arch/arm64/include/asm/thread_info.h"
	.file 41 "./arch/arm64/include/asm/hwcap.h"
	.file 42 "./arch/arm64/include/uapi/asm/ptrace.h"
	.file 43 "./include/asm-generic/qspinlock_types.h"
	.file 44 "./include/asm-generic/qrwlock_types.h"
	.file 45 "./include/linux/lockdep.h"
	.file 46 "./include/linux/spinlock_types.h"
	.file 47 "./include/linux/rwlock_types.h"
	.file 48 "./include/linux/jump_label.h"
	.file 49 "./arch/arm64/include/asm/jump_label.h"
	.file 50 "./arch/arm64/include/asm/cpufeature.h"
	.file 51 "./include/asm-generic/sections.h"
	.file 52 "./arch/arm64/include/asm/stack_pointer.h"
	.file 53 "./arch/arm64/include/asm/sections.h"
	.file 54 "./arch/arm64/include/asm/virt.h"
	.file 55 "./arch/arm64/include/asm/processor.h"
	.file 56 "./arch/arm64/include/asm/fpsimd.h"
	.file 57 "./include/linux/sched/debug.h"
	.file 58 "./include/linux/wait.h"
	.file 59 "./include/linux/cpumask.h"
	.file 60 "./include/linux/rcupdate.h"
	.file 61 "./include/linux/list_bl.h"
	.file 62 "./include/linux/seqlock.h"
	.file 63 "./include/linux/lockref.h"
	.file 64 "./include/linux/dcache.h"
	.file 65 "./include/linux/path.h"
	.file 66 "./include/linux/pid.h"
	.file 67 "./include/linux/highuid.h"
	.file 68 "./include/linux/uidgid.h"
	.file 69 "./include/linux/osq_lock.h"
	.file 70 "./include/linux/debug_locks.h"
	.file 71 "./include/linux/mutex.h"
	.file 72 "./include/linux/sched.h"
	.file 73 "./include/linux/time.h"
	.file 74 "./include/linux/llist.h"
	.file 75 "./include/linux/smp.h"
	.file 76 "./include/asm-generic/percpu.h"
	.file 77 "./arch/arm64/include/asm/smp.h"
	.file 78 "./include/clocksource/arm_arch_timer.h"
	.file 79 "./arch/arm64/include/asm/arch_timer.h"
	.file 80 "./include/linux/timex.h"
	.file 81 "./include/linux/jiffies.h"
	.file 82 "./include/linux/ktime.h"
	.file 83 "./include/linux/timekeeping.h"
	.file 84 "./include/linux/timer.h"
	.file 85 "./include/linux/stddef.h"
	.file 86 "./include/linux/refcount.h"
	.file 87 "./arch/arm64/include/asm/pgtable-types.h"
	.file 88 "./include/asm-generic/pgtable-nop4d-hack.h"
	.file 89 "./arch/arm64/include/asm/page.h"
	.file 90 "./include/linux/mm_types.h"
	.file 91 "./include/linux/plist.h"
	.file 92 "./include/linux/rbtree.h"
	.file 93 "./include/linux/percpu.h"
	.file 94 "./include/linux/timerqueue.h"
	.file 95 "./include/linux/hrtimer.h"
	.file 96 "./include/linux/seccomp.h"
	.file 97 "./include/linux/nodemask.h"
	.file 98 "./include/uapi/asm-generic/signal.h"
	.file 99 "./include/uapi/asm-generic/siginfo.h"
	.file 100 "./include/linux/sched/user.h"
	.file 101 "./include/linux/signal_types.h"
	.file 102 "./include/linux/mm_types_task.h"
	.file 103 "./include/linux/task_io_accounting.h"
	.file 104 "./include/uapi/linux/rseq.h"
	.file 105 "./include/linux/completion.h"
	.file 106 "./include/linux/cred.h"
	.file 107 "./include/linux/iocontext.h"
	.file 108 "./include/linux/uprobes.h"
	.file 109 "./include/linux/vmalloc.h"
	.file 110 "./include/linux/stat.h"
	.file 111 "./include/linux/shrinker.h"
	.file 112 "./include/linux/list_lru.h"
	.file 113 "./include/linux/radix-tree.h"
	.file 114 "./include/linux/rwsem.h"
	.file 115 "./arch/arm64/include/asm/uprobes.h"
	.file 116 "./arch/arm64/include/asm/mmu.h"
	.file 117 "./include/linux/memremap.h"
	.file 118 "./include/linux/mm.h"
	.file 119 "./include/linux/capability.h"
	.file 120 "./include/linux/semaphore.h"
	.file 121 "./include/uapi/linux/fiemap.h"
	.file 122 "./include/linux/migrate_mode.h"
	.file 123 "./include/linux/rcuwait.h"
	.file 124 "./include/linux/rcu_sync.h"
	.file 125 "./include/linux/percpu-rwsem.h"
	.file 126 "./include/linux/delayed_call.h"
	.file 127 "./include/uapi/linux/uuid.h"
	.file 128 "./include/linux/uuid.h"
	.file 129 "./include/linux/errseq.h"
	.file 130 "./include/asm-generic/ioctl.h"
	.file 131 "./include/uapi/linux/fs.h"
	.file 132 "./include/linux/mmzone.h"
	.file 133 "./arch/arm64/include/asm/topology.h"
	.file 134 "./include/linux/arch_topology.h"
	.file 135 "./include/linux/gfp.h"
	.file 136 "./include/linux/percpu_counter.h"
	.file 137 "./include/linux/quota.h"
	.file 138 "./include/linux/projid.h"
	.file 139 "./include/linux/module.h"
	.file 140 "./include/linux/nfs_fs_i.h"
	.file 141 "./include/linux/key.h"
	.file 142 "./include/linux/seq_file.h"
	.file 143 "./include/linux/kobject.h"
	.file 144 "./include/linux/sysctl.h"
	.file 145 "./include/linux/assoc_array.h"
	.file 146 "./include/linux/ratelimit.h"
	.file 147 "./include/linux/debugfs.h"
	.file 148 "./include/linux/delay.h"
	.file 149 "./include/linux/idr.h"
	.file 150 "./include/linux/kernfs.h"
	.file 151 "./include/linux/kobject_ns.h"
	.file 152 "./include/linux/sysfs.h"
	.file 153 "./include/linux/kref.h"
	.file 154 "./include/linux/klist.h"
	.file 155 "./include/linux/pm.h"
	.file 156 "./include/linux/pm_wakeup.h"
	.file 157 "./arch/arm64/include/asm/device.h"
	.file 158 "./include/linux/mod_devicetable.h"
	.file 159 "./include/linux/fwnode.h"
	.file 160 "./include/linux/irqdomain.h"
	.file 161 "./include/linux/rtmutex.h"
	.file 162 "./include/uapi/linux/i2c.h"
	.file 163 "./include/linux/i2c.h"
	.file 164 "./include/linux/irqnr.h"
	.file 165 "./arch/arm64/include/asm/hardirq.h"
	.file 166 "./include/linux/irq_cpustat.h"
	.file 167 "./include/linux/interrupt.h"
	.file 168 "./arch/arm64/include/asm/pgtable.h"
	.file 169 "./include/xen/xen.h"
	.file 170 "./include/linux/io.h"
	.file 171 "./include/linux/kthread.h"
	.file 172 "./include/linux/miscdevice.h"
	.file 173 "./include/linux/percpu-refcount.h"
	.file 174 "./include/linux/page_ext.h"
	.file 175 "./include/linux/tracepoint-defs.h"
	.file 176 "./include/linux/page_ref.h"
	.file 177 "./include/linux/huge_mm.h"
	.file 178 "./include/linux/vm_event_item.h"
	.file 179 "./include/linux/vmstat.h"
	.file 180 "./include/linux/umh.h"
	.file 181 "./include/linux/kmod.h"
	.file 182 "./include/uapi/linux/elf.h"
	.file 183 "./include/linux/elf.h"
	.file 184 "./include/linux/moduleparam.h"
	.file 185 "./include/linux/rbtree_latch.h"
	.file 186 "./arch/arm64/include/asm/module.h"
	.file 187 "./arch/arm64/include/asm/extable.h"
	.file 188 "./include/linux/node.h"
	.file 189 "./include/linux/cpu.h"
	.file 190 "./include/linux/platform_device.h"
	.file 191 "./include/linux/of_platform.h"
	.file 192 "./include/linux/sched/task.h"
	.file 193 "./include/uapi/linux/sched/types.h"
	.file 194 "drivers/gpu/drm/rockchip/ebc-dev/epdlut/epd_lut.h"
	.file 195 "drivers/gpu/drm/rockchip/ebc-dev/bufmanage/buf_manage.h"
	.file 196 "drivers/gpu/drm/rockchip/ebc-dev/pmic/../ebc_dev.h"
	.file 197 "./include/linux/dma-direction.h"
	.file 198 "./include/linux/scatterlist.h"
	.file 199 "./include/xen/arm/hypervisor.h"
	.file 200 "./arch/arm64/include/asm/dma-mapping.h"
	.file 201 "drivers/gpu/drm/rockchip/ebc-dev/tcon/../ebc_panel.h"
	.file 202 "./include/linux/thread_info.h"
	.file 203 "./include/linux/dma-debug.h"
	.file 204 "./include/linux/err.h"
	.file 205 "./include/asm-generic/getorder.h"
	.file 206 "./include/linux/log2.h"
	.file 207 "./include/uapi/linux/byteorder/little_endian.h"
	.file 208 "./include/uapi/linux/swab.h"
	.file 209 "./include/asm-generic/bitops/fls64.h"
	.file 210 "./include/asm-generic/bitops/builtin-__fls.h"
	.file 211 "./include/linux/kasan-checks.h"
	.file 212 "./include/linux/of_address.h"
	.file 213 "./arch/arm64/include/asm/string.h"
	.file 214 "./include/linux/string.h"
	.section	.note.GNU-stack,"",@progbits
